Microsoft (R) Macro Assembler Version 6.11		    12/07/25 22:06:07
src\main.asm						     Page 1 - 1


				INCLUDE Irvine32.inc
			      C ; Include file for Irvine32.lib             (Irvine32.inc)
			      C 
			      C ;OPTION CASEMAP:NONE		; optional: make identifiers case-sensitive
			      C 
			      C INCLUDE SmallWin.inc		; MS-Windows prototypes, structures, and constants
			      C .NOLIST
			      C .LIST
			      C 
			      C INCLUDE VirtualKeys.inc
			      C ; VirtualKeys.inc
			      C .NOLIST
			      C .LIST
			      C 
			      C 
			      C .NOLIST
			      C .LIST
			      C 
				INCLUDE Macros.inc 
			      C .NOLIST
			      C .LIST
			      C 
				INCLUDE GraphWin.inc 
			      C .NOLIST
			      C .LIST
			      C 
				INCLUDE DataFormat.inc 
			      C ; basic unit of snake
			      C ; dir: 0 RIGHT, 1 UP, 2 LEFT, 3 DOWN
 00000005		      C BLOCK STRUCT
 00000000  0000 0000	      C     pos COORD <> 
 00000004  00		      C     dir BYTE ?
			      C BLOCK ENDS
			      C 
			      C ; apple
 00000005		      C APPLE STRUCT
 00000000  0000 0000	      C     pos COORD <>
 00000004  00		      C     eaten BYTE 0
			      C APPLE ENDS
			      C 
			      C ; obstacle
 00000005		      C OBSTACLE STRUCT
 00000000  0000 0000	      C     pos COORD <>
 00000004  00		      C     harmful BYTE ?
			      C OBSTACLE ENDS
			      C 
				INCLUDE Plotting.inc
			      C EXTERN SetConsoleCursorPosition :PROTO :DWORD, :COORD
			      C EXTERN WriteConsoleW            :PROTO :DWORD, :PTR WORD, :DWORD, :PTR DWORD, :DWORD
			      C EXTERN SetConsoleTextAttribute  :PROTO :DWORD, :WORD
			      C 
			      C PlotSnake   PROTO :DWORD, :PTR BLOCK, :DWORD, :PTR DWORD
			      C PlotApples  PROTO :DWORD, :PTR APPLE, :DWORD, :PTR DWORD
			      C PlotObst    PROTO :DWORD, :PTR OBSTACLE, :DWORD, :PTR DWORD
			      C PlotBox     PROTO :DWORD, :PTR COORD, :DWORD, :PTR DWORD 
			      C 
				INCLUDE GameMechanism.inc
			      C CheckIntersection PROTO :WORD, :WORD, 
			      C                         :PTR BLOCK, :DWORD, 
			      C                         :PTR OBSTACLE, :DWORD
			      C 
			      C CheckSupported PROTO :WORD, :WORD,
			      C                      :PTR OBSTACLE, :DWORD,
			      C                      :PTR APPLE, :DWORD,
			      C                      :PTR COORD, :DWORD,
			      C                      :COORD 
			      C 
			      C 

 = start@0			main EQU start@0 

				GetStdHandle PROTO :DWORD 
				WriteConsoleW PROTO :DWORD, :PTR WORD, :DWORD, :PTR DWORD, :DWORD 
				ExitProcess PROTO :DWORD 
 = 00001388			BufferSize = 5000

				Select_Load_Stage PROTO

 00000000			.DATA 
 00000000  00001388 [		buffer byte BufferSize dup(?)
	    00
	   ]
 00001388  00000064 [		fileInput byte 100 dup(?)
	    00
	   ]
 000013EC 2E 2E 2F 73 72	filename byte "../src/stages/s", 2 dup(?), ".txt", 0
	   63 2F 73 74 61
	   67 65 73 2F 73
	   00000002 [
	    00
	   ] 2E 74 78 74
	   00
 00001402 00000000		fileHandle handle ?

 00001406 00000000		consoleHandle DWORD ? 
 0000140A  00000002 [		fullBlock WORD 2 dup(2588h), 0
	    2588
	   ] 0000
 00001410 1C			scr_height BYTE 28
 00001411 3A			scr_width BYTE 58 
 00001412 00000000		written DWORD ? 

 00001416  0000000F [		snake BLOCK 15 dup(<>)
	    0000 0000 00
	   ]
 00001461 00000000		snakeLen DWORD ?
 00001465  0000000F [		apples APPLE 15  dup(<>)
	    0000 0000 00
	   ]
 000014B0 00000000		appleLen DWORD ?
 000014B4  0000003C [		obstacles OBSTACLE 60 dup(<>)
	    0000 0000 00
	   ]
 000015E0 00000000		obstacleLen DWORD ?
 000015E4  0000000F [		boxes COORD 15 dup(<>)
	    0000 0000
	   ]
 00001620 00000000		boxLen DWORD ?
 00001624 0000 0000		goal COORD <>
 00001628 0000 0000 00		lastPos BLOCK <>

 0000162D 00000000		update_box DWORD ?
 00001631 00			update BYTE ?

 00001632  00000002 [		stageText byte 2 dup(?),0
	    00
	   ] 00
 00001635 0000 0000		xyUI COORD <?,?>

				; TODO
				; 2. box 

 00000000			.CODE 
 00000000			main PROC 
					INVOKE GetStdHandle, STD_OUTPUT_HANDLE 
 00000007  A3 00001406 R		mov consoleHandle, eax 

				; title screen
 0000000C			TITLE_SCREEN:
 0000000C  E8 00000000 E	    call ClrScr
					
				    INVOKE SetConsoleTextAttribute, consoleHandle, 0Ah
 0000001E  66| C7 05			mov xyUI.X, 10
	   00001635 R
	   000A
 00000027  66| C7 05			mov xyUI.Y, 7
	   00001637 R
	   0007
					INVOKE SetConsoleCursorPosition, consoleHandle, xyUI
					mWrite <"  ____              _          ____                _         ____                      ">
 00001639		     1		.data		
 00001639 20 20 5F 5F 5F     1		??0000 BYTE "  ____              _          ____                _         ____                      ",0	
	   5F 20 20 20 20
	   20 20 20 20 20
	   20 20 20 20 20
	   5F 20 20 20 20
	   20 20 20 20 20
	   20 5F 5F 5F 5F
	   20 20 20 20 20
	   20 20 20 20 20
	   20 20 20 20 20
	   20 5F 20 20 20
	   20 20 20 20 20
	   20 5F 5F 5F 5F
	   20 20 20 20 20
	   20 20 20 20 20
	   20 20 20 20 20
	   20 20 20 20 20
	   20 20 00
 00000041		     1		.code
 00000041  52		     1		push	edx
 00000042  BA 00001639 R     1		mov	edx,OFFSET ??0000
 00000047  E8 00000000 E     1		call	WriteString
 0000004C  5A		     1		pop	edx
 0000004D  66| C7 05			mov xyUI.X, 10
	   00001635 R
	   000A
 00000056  66| C7 05			mov xyUI.Y, 8
	   00001637 R
	   0008
					INVOKE SetConsoleCursorPosition, consoleHandle, xyUI
					mWrite <" / ___| _ __   __ _| | _____  |  _ \ _   _ _______| | ___   / ___| __ _ _ __ ___   ___ ">
 00001691		     1		.data		
 00001691 20 2F 20 5F 5F     1		??0001 BYTE " / ___| _ __   __ _| | _____  |  _ \ _   _ _______| | ___   / ___| __ _ _ __ ___   ___ ",0	
	   5F 7C 20 5F 20
	   5F 5F 20 20 20
	   5F 5F 20 5F 7C
	   20 7C 20 5F 5F
	   5F 5F 5F 20 20
	   7C 20 20 5F 20
	   5C 20 5F 20 20
	   20 5F 20 5F 5F
	   5F 5F 5F 5F 5F
	   7C 20 7C 20 5F
	   5F 5F 20 20 20
	   2F 20 5F 5F 5F
	   7C 20 5F 5F 20
	   5F 20 5F 20 5F
	   5F 20 5F 5F 5F
	   20 20 20 5F 5F
	   5F 20 00
 00000070		     1		.code
 00000070  52		     1		push	edx
 00000071  BA 00001691 R     1		mov	edx,OFFSET ??0001
 00000076  E8 00000000 E     1		call	WriteString
 0000007B  5A		     1		pop	edx
 0000007C  66| C7 05			mov xyUI.X, 10
	   00001635 R
	   000A
 00000085  66| C7 05			mov xyUI.Y, 9
	   00001637 R
	   0009
					INVOKE SetConsoleCursorPosition, consoleHandle, xyUI
					mWrite <" \___ \| '_ \ / _` | |/ / _ \ | |_) | | | |_  /_  / |/ _ \ | |  _ / _` | '_ ` _ \ / _ \">
 000016E9		     1		.data		
 000016E9 20 5C 5F 5F 5F     1		??0002 BYTE " \___ \| '_ \ / _` | |/ / _ \ | |_) | | | |_  /_  / |/ _ \ | |  _ / _` | '_ ` _ \ / _ \",0	
	   20 5C 7C 20 27
	   5F 20 5C 20 2F
	   20 5F 60 20 7C
	   20 7C 2F 20 2F
	   20 5F 20 5C 20
	   7C 20 7C 5F 29
	   20 7C 20 7C 20
	   7C 20 7C 5F 20
	   20 2F 5F 20 20
	   2F 20 7C 2F 20
	   5F 20 5C 20 7C
	   20 7C 20 20 5F
	   20 2F 20 5F 60
	   20 7C 20 27 5F
	   20 60 20 5F 20
	   5C 20 2F 20 5F
	   20 5C 00
 0000009F		     1		.code
 0000009F  52		     1		push	edx
 000000A0  BA 000016E9 R     1		mov	edx,OFFSET ??0002
 000000A5  E8 00000000 E     1		call	WriteString
 000000AA  5A		     1		pop	edx
 000000AB  66| C7 05			mov xyUI.X, 10
	   00001635 R
	   000A
 000000B4  66| C7 05			mov xyUI.Y, 10
	   00001637 R
	   000A
					INVOKE SetConsoleCursorPosition, consoleHandle, xyUI
					mWrite <"  ___) | | | | (_| |   <  __/ |  __/| |_| |/ / / /| |  __/ | |_| | (_| | | | | | |  __/">
 00001741		     1		.data		
 00001741 20 20 5F 5F 5F     1		??0003 BYTE "  ___) | | | | (_| |   <  __/ |  __/| |_| |/ / / /| |  __/ | |_| | (_| | | | | | |  __/",0	
	   29 20 7C 20 7C
	   20 7C 20 7C 20
	   28 5F 7C 20 7C
	   20 20 20 3C 20
	   20 5F 5F 2F 20
	   7C 20 20 5F 5F
	   2F 7C 20 7C 5F
	   7C 20 7C 2F 20
	   2F 20 2F 20 2F
	   7C 20 7C 20 20
	   5F 5F 2F 20 7C
	   20 7C 5F 7C 20
	   7C 20 28 5F 7C
	   20 7C 20 7C 20
	   7C 20 7C 20 7C
	   20 7C 20 20 5F
	   5F 2F 00
 000000CE		     1		.code
 000000CE  52		     1		push	edx
 000000CF  BA 00001741 R     1		mov	edx,OFFSET ??0003
 000000D4  E8 00000000 E     1		call	WriteString
 000000D9  5A		     1		pop	edx
 000000DA  66| C7 05			mov xyUI.X, 10
	   00001635 R
	   000A
 000000E3  66| C7 05			mov xyUI.Y, 11
	   00001637 R
	   000B
					INVOKE SetConsoleCursorPosition, consoleHandle, xyUI
					mWrite <" |____/|_| |_|\__,_|_|\_\___| |_|    \__,_/___/___|_|\___|  \____|\__,_|_| |_| |_|\___|">
 00001799		     1		.data		
 00001799 20 7C 5F 5F 5F     1		??0004 BYTE " |____/|_| |_|\__,_|_|\_\___| |_|    \__,_/___/___|_|\___|  \____|\__,_|_| |_| |_|\___|",0	
	   5F 2F 7C 5F 7C
	   20 7C 5F 7C 5C
	   5F 5F 2C 5F 7C
	   5F 7C 5C 5F 5C
	   5F 5F 5F 7C 20
	   7C 5F 7C 20 20
	   20 20 5C 5F 5F
	   2C 5F 2F 5F 5F
	   5F 2F 5F 5F 5F
	   7C 5F 7C 5C 5F
	   5F 5F 7C 20 20
	   5C 5F 5F 5F 5F
	   7C 5C 5F 5F 2C
	   5F 7C 5F 7C 20
	   7C 5F 7C 20 7C
	   5F 7C 5C 5F 5F
	   5F 7C 00
 000000FD		     1		.code
 000000FD  52		     1		push	edx
 000000FE  BA 00001799 R     1		mov	edx,OFFSET ??0004
 00000103  E8 00000000 E     1		call	WriteString
 00000108  5A		     1		pop	edx
 00000109  66| C7 05			mov xyUI.X, 10
	   00001635 R
	   000A
 00000112  66| C7 05			mov xyUI.Y, 12
	   00001637 R
	   000C
					INVOKE SetConsoleCursorPosition, consoleHandle, xyUI
				    INVOKE SetConsoleTextAttribute, consoleHandle, 0Fh
 00000139  E8 00000000 E	    call WaitMsg

 0000013E			SELECT_STAGE:
				; stage selection and load stage
 0000013E  E8 00000000 E	    call ClrScr
 00000143  E8 00000B35		    call Select_Load_Stage 
 00000148  E8 00000000 E	    call WaitMsg

 0000014D			MAIN_LOOP: 
 0000014D  E8 00000000 E		call ClrScr 

				; plot snake
				    INVOKE PlotSnake, consoleHandle, ADDR snake, snakeLen, ADDR written

				; plot apple
				    INVOKE PlotApples, consoleHandle, ADDR apples, appleLen, ADDR written

				; plot obstacle    
				    INVOKE PlotObst, consoleHandle, ADDR obstacles, obstacleLen, ADDR written

				; plot box
				    INVOKE PlotBox, consoleHandle, ADDR boxes, boxLen, ADDR written

				; plot goal
 000001BE  60			    pushad
				    INVOKE SetConsoleTextAttribute, consoleHandle, 09h
				    INVOKE SetConsoleCursorPosition, consoleHandle, goal 
				    INVOKE WriteConsoleW, consoleHandle, ADDR fullBlock, 2, ADDR written, 0
				    INVOKE SetConsoleTextAttribute, consoleHandle, 0Fh
 00000203  61			    popad

 00000204			INPUT:
				    ; Detect input char
 00000204  E8 00000000 E		call ReadChar 
				    ; call ReadKey

 00000209  BB 00000004		    mov ebx, 4 ; clear direction 

				    ; store new direction in bl

					.IF ax == 1177h ; W
 00000214  B3 01			    mov bl, 1	
					.ELSEIF ax == 1F73h ; S 
 0000021E  B3 03			    mov bl, 3	
					.ELSEIF ax == 1E61h ; A
 00000228  B3 02			    mov bl, 2	
					.ELSEIF ax == 2064h ; D 
 00000232  B3 00			    mov bl, 0	
				    .ELSEIF ax == 1071h ; Q 
 0000023C  E9 FFFFFEFD		        jmp SELECT_STAGE 
				    .ELSEIF ax == 1372h ; R
 00000249  E9 FFFFFDBE		        jmp TITLE_SCREEN
					.ELSEIF ax == 011Bh ; ESC 
 00000256  E9 00000903				jmp END_FUNC 
					.ELSE 
 0000025D  E9 00000682				jmp NEXT_LOOP
					.ENDIF

				; check if the direction is valid
 00000262  A0 0000141A R	    mov al, snake[0].dir
 00000267  38 D8		    cmp al, bl
 00000269  74 0F		    je CHECK_INTERSECTING

 0000026B  8A FB		    mov bh, bl
 0000026D  24 01		    and al, 1
 0000026F  80 E7 01		    and bh, 1
 00000272  38 F8		    cmp al, bh
 00000274  0F 84 0000040B	    je NO_UPDATE

 0000027A			CHECK_INTERSECTING:
 0000027A  66| A1		    mov ax, snake[0].pos.X
	   00001416 R
				    .IF bl == 0
 00000284  66| 83 C0 02		        add ax, 2
				    .ENDIF
				    .IF bl == 2
 0000028D  66| 83 C0 FE		        add ax, -2
				    .ENDIF

 00000291  66| 8B 15		    mov dx, snake[0].pos.Y
	   00001418 R
				    .IF bl == 1
 0000029D  66| 83 C2 FF		        add dx, -1
				    .ENDIF
				    .IF bl == 3
 000002A6  66| 83 C2 01		        add dx, 1
				    .ENDIF

				; invoke check intersecting
				    INVOKE CheckIntersection, ax, dx, ADDR snake, snakeLen, ADDR obstacles, obstacleLen
				    .IF bh == 1 
 000002D4  E9 0000075C		        jmp GAMEOVER 
				    .ELSEIF bh == 2
 000002E0  E9 000003A0		        jmp NO_UPDATE
				    .ENDIF

				; check collision with boxes
					.IF boxLen == 0
 000002EE  E9 0000016A				jmp CHECK_BORDER
					.ENDIF
 000002F3  8B 0D 00001620 R	    mov ecx, boxLen
 000002F9  BE 00000000		    mov esi, 0
 000002FE			BOX_COLLISION_CHECK:
 000002FE  66| 3B 86		    cmp ax, boxes[esi].X
	   000015E4 R
 00000305  0F 85 00000146	    jne CONT_BOX_COLLISION
 0000030B  66| 3B 96		    cmp dx, boxes[esi].Y
	   000015E6 R
 00000312  0F 85 00000139	    jne CONT_BOX_COLLISION
 00000318  56			    push esi

				; check box destination empty
				    .IF bl == 0
 0000031D  66| 83 C0 02		        add ax, 2
				    .ENDIF
				    .IF bl == 2
 00000326  66| 83 C0 FE		        add ax, -2
				    .ENDIF

				    .IF bl == 1
 0000032F  66| 83 C2 FF		        add dx, -1
				    .ENDIF
				    .IF bl == 3
 00000338  66| 83 C2 01		        add dx, 1
				    .ENDIF
				    
				    ; snake and obstacle 
				    INVOKE CheckIntersection, ax, dx, ADDR snake, snakeLen, ADDR obstacles, obstacleLen
				    .IF bh == 1 
 00000366  E9 0000031A		        jmp NO_UPDATE 
				    .ENDIF
				    .IF bh == 2
 00000370  E9 00000310		        jmp NO_UPDATE
				    .ENDIF

				    ; box
 00000375  51			    push ecx
 00000376  56			    push esi
 00000377  8B 0D 00001620 R	    mov ecx, boxLen
 0000037D  BE 00000000		    mov esi, 0
 00000382			BB_COLL:
 00000382  66| 3B 86		    cmp ax, boxes[esi].X
	   000015E4 R
 00000389  75 0E		    jne CONT_BB_COLL
 0000038B  66| 3B 96		    cmp dx, boxes[esi].Y
	   000015E6 R
 00000392  75 05		    jne CONT_BB_COLL

 00000394  E9 000002EC		    jmp NO_UPDATE
 00000399			CONT_BB_COLL:
 00000399  83 C6 04		    add esi, SIZEOF COORD
 0000039C  E2 E4		    loop BB_COLL

				    ; apple
 0000039E  8B 0D 000014B0 R	    mov ecx, appleLen
 000003A4  BE 00000000		    mov esi, 0
 000003A9			BA_COLL:
 000003A9  8A BE 00001469 R	    mov bh, apples[esi].eaten
				    .IF bh == 0
 000003B3  66| 3B 86		        cmp ax, apples[esi].pos.X
	   00001465 R
 000003BA  75 0E		        jne CONT_BA_COLL
 000003BC  66| 3B 96		        cmp dx, apples[esi].pos.Y
	   00001467 R
 000003C3  75 05		        jne CONT_BA_COLL

 000003C5  E9 000002BB		        jmp NO_UPDATE
				    .ENDIF
 000003CA			CONT_BA_COLL:
 000003CA  83 C6 05		    add esi, SIZEOF APPLE 
 000003CD  E2 DA		    loop BA_COLL

 000003CF  5E			    pop esi
 000003D0  59			    pop ecx
				    ; goal
 000003D1  66| 3B 05		    cmp ax, goal.X
	   00001624 R
 000003D8  75 0E		    jne ORI_VAL
 000003DA  66| 3B 15		    cmp dx, goal.Y
	   00001626 R
 000003E1  75 05		    jne ORI_VAL

 000003E3  E9 0000029D		    jmp NO_UPDATE

 000003E8			ORI_VAL:
				    .IF bl == 0
 000003EC  66| 83 C0 FE		        add ax, -2
				    .ENDIF
				    .IF bl == 2
 000003F5  66| 83 C0 02		        add ax, 2
				    .ENDIF

				    .IF bl == 1
 000003FE  66| 83 C2 01		        add dx, 1
				    .ENDIF
				    .IF bl == 3
 00000407  66| 83 C2 FF		        add dx, -1
				    .ENDIF
				 
				; move box
 0000040B  5E			    pop esi
				    .IF bl == 0
 00000410  66| 83 86		        add boxes[esi].X, 2
	   000015E4 R 02
				    .ELSEIF bl == 1
 0000041F  66| 83 86		        add boxes[esi].Y, -1
	   000015E6 R FF
				    .ELSEIF bl == 2
 0000042E  66| 83 86		        add boxes[esi].X, -2
	   000015E4 R FE
				    .ELSEIF bl == 3
 0000043D  E9 00000243		        jmp NO_UPDATE
				    .ENDIF
 00000442  89 35 0000162D R		mov update_box, esi
 00000448  C6 05 00001631 R		mov update, 1
	   01
 0000044F  EB 0C		    jmp CHECK_BORDER
 00000451			CONT_BOX_COLLISION:
 00000451  83 C6 04		    add esi, TYPE boxes
 00000454  49			    dec ecx
 00000455  0F 85 FFFFFEA3	    jnz near ptr BOX_COLLISION_CHECK 

 0000045B  EB 00		    jmp CHECK_BORDER
					
				; --- (old)

				; ------- Check border --------
 0000045D			CHECK_BORDER:
				    .IF ax <= 0h
 00000463  E9 0000021D			    jmp NO_UPDATE	
					.ENDIF
					.IF ax >= 78h
 0000046E  E9 00000212			    jmp NO_UPDATE	
					.ENDIF
					.IF dx == 0h
 00000478  E9 00000208			    jmp NO_UPDATE	
					.ENDIF
					.IF dx == 1Dh
 00000483  E9 000001FD			    jmp NO_UPDATE	
					.ENDIF

 00000488			UPDATE_POS:
 00000488  8B 0D 00001461 R	    mov ecx, snakeLen 
 0000048E  BE 00000000		    mov esi, 0
 00000493			UPDATE_LOOP:
 00000493  66| 8B 86		    mov ax, WORD PTR snake[esi].pos.X
	   00001416 R
 0000049A  66| A3		    mov WORD PTR lastPos.pos.X, ax 
	   00001628 R
 000004A0  66| 8B 86		    mov ax, WORD PTR snake[esi].pos.Y
	   00001418 R
 000004A7  66| A3		    mov WORD PTR lastPos.pos.Y, ax
	   0000162A R
 000004AD  8A 86 0000141A R	    mov al, BYTE PTR snake[esi].dir
 000004B3  A2 0000162C R	    mov BYTE PTR lastPos.dir, al

				    ; right
				    .IF bl == 0
 000004BC  66| 83 86		        add snake[esi].pos.X, 2 
	   00001416 R 02
				    .ENDIF
				    ; top
				    .IF bl == 1
 000004C9  66| 83 86		        add snake[esi].pos.Y, -1
	   00001418 R FF
				    .ENDIF
				    ; left
				    .IF bl == 2
 000004D6  66| 83 86		        add snake[esi].pos.X, -2
	   00001416 R FE
				    .ENDIF
				    ; down
				    .IF bl == 3
 000004E3  66| 83 86		        add snake[esi].pos.Y, 1 
	   00001418 R 01
				    .ENDIF
				    
 000004EB  8A BE 0000141A R	    mov bh, snake[esi].dir
 000004F1  88 9E 0000141A R	    mov snake[esi].dir, bl
 000004F7  8A DF		    mov bl, bh
 000004F9  83 C6 05		    add esi, TYPE snake 

 000004FC  E2 95		    loop UPDATE_LOOP
					
				; -- (new)
					.IF update ==1
 0000050B  C6 05 00001631 R			mov update, 0
	   00
 00000512			CHECK_BOX_SUPP:
 00000512  50					push eax
 00000513  52					push edx
 00000514			WN_SUPP:
 00000514  8B 35 0000162D R			mov esi, update_box
 0000051A  66| 8B 86				mov ax, boxes[esi].X 
	   000015E4 R
 00000521  66| 8B 96				mov dx, boxes[esi].Y
	   000015E6 R
 00000528  66| 42				inc dx
						INVOKE CheckIntersection, ax, dx, ADDR snake, snakeLen, ADDR obstacles, obstacleLen
						.IF bh == 1 
 00000554  EB 50					jmp MOVE_ON 
						.ENDIF
						.IF bh == 2
 0000055B  EB 49					jmp MOVE_ON
						.ENDIF
				; check box supported by apple
 0000055D  8B 0D 000014B0 R			mov ecx, appleLen
 00000563  BE 00000000				mov esi, 0
 00000568			BA_SUPP:
 00000568  8A BE 00001469 R			mov bh, apples[esi].eaten
						.IF bh == 0
 00000572  66| 3B 86					cmp ax, apples[esi].pos.X
	   00001465 R
 00000579  75 0B					jne CONT_BA_SUPP
 0000057B  66| 3B 96					cmp dx, apples[esi].pos.Y
	   00001467 R
 00000582  75 02					jne CONT_BA_SUPP
							
 00000584  EB 20					jmp MOVE_ON
						.ENDIF
 00000586			CONT_BA_SUPP:
 00000586  83 C6 05				add esi, SIZEOF APPLE
 00000589  E2 DD				loop BA_SUPP
						
 0000058B			APPLE_GRAVITY:
 0000058B  8B 35 0000162D R			mov esi, update_box
 00000591  66| 83 86				add boxes[esi].Y, 1
	   000015E6 R 01
						.IF dx >= 1Ch
 0000059F  EB 05					jmp MOVE_ON
						.ENDIF
 000005A1  E9 FFFFFF6E				jmp WN_SUPP
					
 000005A6			MOVE_ON:
 000005A6  5A					pop edx
 000005A7  58					pop eax
					.ENDIF
				; --

				; check tail-supported box
					.IF boxLen == 0
 000005B1  E9 000000CF				jmp NO_UPDATE
					.ENDIF
 000005B6  8B 0D 00001620 R		mov ecx, boxLen
 000005BC  BE 00000000			mov esi, 0
 000005C1  66| A1			mov ax, lastPos.pos.X
	   00001628 R
 000005C7  66| 8B 15			mov dx, lastPos.pos.Y
	   0000162A R
 000005CE  66| 4A			dec dx
 000005D0			T_SUPP:
 000005D0  66| 3B 86			cmp ax, boxes[esi].X 
	   000015E4 R
 000005D7  75 11			jne CONT_T_SUPP
 000005D9  66| 3B 96			cmp dx, boxes[esi].Y
	   000015E6 R
 000005E0  75 08			jne CONT_T_SUPP
					
 000005E2  89 35 0000162D R		mov update_box, esi
 000005E8  EB 05			jmp CHECK_BOX_SUPP_T
 000005EA			CONT_T_SUPP:
 000005EA  83 C6 04			add esi, SIZEOF COORD
 000005ED  E2 E1			loop T_SUPP

				; ---------------
 000005EF			CHECK_BOX_SUPP_T:
 000005EF  50				push eax
 000005F0  52				push edx
 000005F1			WN_SUPP_T:
 000005F1  8B 35 0000162D R		mov esi, update_box
 000005F7  66| 8B 86			mov ax, boxes[esi].X 
	   000015E4 R
 000005FE  66| 8B 96			mov dx, boxes[esi].Y
	   000015E6 R
 00000605  66| 42			inc dx
					INVOKE CheckIntersection, ax, dx, ADDR snake, snakeLen, ADDR obstacles, obstacleLen
					.IF bh == 1 
 00000631  EB 50				jmp MOVE_ON_T
					.ENDIF
					.IF bh == 2
 00000638  EB 49				jmp MOVE_ON_T
					.ENDIF
				; check box supported by apple
 0000063A  8B 0D 000014B0 R		mov ecx, appleLen
 00000640  BE 00000000			mov esi, 0
 00000645			BA_SUPP_T:
 00000645  8A BE 00001469 R		mov bh, apples[esi].eaten
					.IF bh == 0
 0000064F  66| 3B 86				cmp ax, apples[esi].pos.X
	   00001465 R
 00000656  75 0B				jne CONT_BA_SUPP_T
 00000658  66| 3B 96				cmp dx, apples[esi].pos.Y
	   00001467 R
 0000065F  75 02				jne CONT_BA_SUPP_T
						
 00000661  EB 20				jmp MOVE_ON_T
					.ENDIF
 00000663			CONT_BA_SUPP_T:
 00000663  83 C6 05			add esi, SIZEOF APPLE
 00000666  E2 DD			loop BA_SUPP_T
					
 00000668			APPLE_GRAVITY_T:
 00000668  8B 35 0000162D R		mov esi, update_box
 0000066E  66| 83 86			add boxes[esi].Y, 1
	   000015E6 R 01
					.IF dx >= 1Ch
 0000067C  EB 05				jmp MOVE_ON_T
					.ENDIF
 0000067E  E9 FFFFFF6E			jmp WN_SUPP_T

 00000683			MOVE_ON_T:
 00000683  5A				pop edx
 00000684  58				pop eax
				;----------------------

 00000685			NO_UPDATE:   
				    ; check apple
 00000685  8B 0D 000014B0 R	    mov ecx, appleLen
 0000068B  BE 00000000		    mov esi, 0
 00000690			APPLE_EATEN:
 00000690  8A 86 00001469 R	    mov al, apples[esi].eaten
				    .IF al == 0
 0000069A  66| A1		        mov ax, snake[0].pos.X
	   00001416 R
 000006A0  66| 3B 86		        cmp ax, apples[esi].pos.X
	   00001465 R
 000006A7  75 4C		        jne CONTINUE_APPLE
 000006A9  66| A1		        mov ax, snake[0].pos.Y
	   00001418 R
 000006AF  66| 3B 86		        cmp ax, apples[esi].pos.Y
	   00001467 R
 000006B6  75 3D		        jne CONTINUE_APPLE

 000006B8  A1 00001461 R	        mov eax, snakeLen
 000006BD  6B C0 05		        imul eax, TYPE snake
 000006C0  66| 8B 1D		        mov bx, lastPos.pos.X
	   00001628 R
 000006C7  66| 89 98		        mov snake[eax].pos.X, bx
	   00001416 R
 000006CE  66| 8B 1D		        mov bx, lastPos.pos.Y
	   0000162A R
 000006D5  66| 89 98		        mov snake[eax].pos.Y, bx
	   00001418 R
 000006DC  8A 1D 0000162C R	        mov bl, lastPos.dir
 000006E2  88 98 0000141A R	        mov snake[eax].dir, bl    
 000006E8  FF 05 00001461 R	        inc snakeLen
 000006EE  C6 86 00001469 R	        mov apples[esi].eaten, 1
	   01
				    .ENDIF
 000006F5			CONTINUE_APPLE:
 000006F5  83 C6 05		    add esi, TYPE apples 
 000006F8  E2 96		    loop APPLE_EATEN

 000006FA			CHECK_GOAL:
 000006FA  66| A1		    mov ax, snake[0].pos.X
	   00001416 R
 00000700  66| 3B 05		    cmp ax, goal.X
	   00001624 R
 00000707  75 17		    jne CHECK_SUPP
 00000709  66| A1		    mov ax, snake[0].pos.Y
	   00001418 R
 0000070F  66| 3B 05		    cmp ax, goal.Y
	   00001626 R
 00000716  75 08		    jne CHECK_SUPP

 00000718  E9 000001CC		    jmp FINISH
				    

				; check if supported by apples or obstacles 
 0000071D  66| 33 D2		    xor dx, dx ; store whether snake is supported only by harmful obstacle 
 00000720			CHECK_SUPP:
 00000720  E8 00000000 E	    call ClrScr 

				; plot snake
				    INVOKE PlotSnake, consoleHandle, ADDR snake, snakeLen, ADDR written

				; plot apple
				    INVOKE PlotApples, consoleHandle, ADDR apples, appleLen, ADDR written

				; plot obstacle    
				    INVOKE PlotObst, consoleHandle, ADDR obstacles, obstacleLen, ADDR written

				; plot box
				    INVOKE PlotBox, consoleHandle, ADDR boxes, boxLen, ADDR written    

				; plot goal
 00000791  60			    pushad
				    INVOKE SetConsoleTextAttribute, consoleHandle, 09h
				    INVOKE SetConsoleCursorPosition, consoleHandle, goal 
				    INVOKE WriteConsoleW, consoleHandle, ADDR fullBlock, 2, ADDR written, 0
				    INVOKE SetConsoleTextAttribute, consoleHandle, 0Fh
 000007D6  61			    popad

 000007D7  8B 0D 00001461 R	    mov ecx, snakeLen
 000007DD  BE 00000000		    mov esi, 0
 000007E2			LOOP_SUPP:
 000007E2  66| 8B 86		    mov ax, snake[esi].pos.X
	   00001416 R
 000007E9  66| 8B 9E		    mov bx, snake[esi].pos.Y
	   00001418 R
 000007F0  66| 43		    inc bx
 000007F2  51			    push ecx
 000007F3  56			    push esi

 000007F4  8B 0D 000015E0 R	    mov ecx, obstacleLen
 000007FA  BE 00000000		    mov esi, 0
 000007FF			SUPP_OBST:
 000007FF  66| 3B 86		    cmp ax, obstacles[esi].pos.X
	   000014B4 R
 00000806  75 1C		    jne CONT_OBST
 00000808  66| 3B 9E		    cmp bx, obstacles[esi].pos.Y
	   000014B6 R
 0000080F  75 13		    jne CONT_OBST

 00000811  8A 96 000014B8 R	    mov dl, obstacles[esi].harmful
				    .IF dl == 0
 0000081B  E9 000000C4		        jmp SUPPORTED
				    .ELSE
 00000822  B6 01		        mov dh, 1
				    .ENDIF


 00000824			CONT_OBST:
 00000824  83 C6 05		    add esi, TYPE obstacles
 00000827  E2 D6		    loop SUPP_OBST
				    
				    
 00000829  8B 0D 000014B0 R	    mov ecx, appleLen 
 0000082F  BE 00000000		    mov esi, 0
 00000834			SUPP_APPLE:
				    .IF apples[esi].eaten == 0
 0000083D  66| 3B 86		        cmp ax, apples[esi].pos.X
	   00001465 R
 00000844  75 0E		        jne CONT_APPLE_SUPP
 00000846  66| 3B 9E		        cmp bx, apples[esi].pos.Y
	   00001467 R
 0000084D  75 05		        jne CONT_APPLE_SUPP

 0000084F  E9 00000090		        jmp SUPPORTED
				    .ENDIF

 00000854			CONT_APPLE_SUPP:
 00000854  83 C6 05		    add esi, TYPE apples 
 00000857  E2 DB		    loop SUPP_APPLE

				; ---------- check box support ------------
					.IF boxLen == 0
 00000862  EB 24				jmp SUPP_GOAL
					.ENDIF
 00000864  8B 0D 00001620 R	    mov ecx, boxLen
 0000086A  BE 00000000		    mov esi, 0
 0000086F			SUPP_BOX:
 0000086F  66| 3B 86		    cmp ax, boxes[esi].X
	   000015E4 R
 00000876  75 0B		    jne CONT_BOX_SUPP
 00000878  66| 3B 9E		    cmp bx, boxes[esi].Y
	   000015E6 R
 0000087F  75 02		    jne CONT_BOX_SUPP

 00000881  EB 61		    jmp SUPPORTED

 00000883			CONT_BOX_SUPP:
 00000883  83 C6 04		    add esi, TYPE boxes
 00000886  E2 E7		    loop SUPP_BOX

				; ---------- check goal support ----------; 374
 00000888			SUPP_GOAL:
 00000888  66| 3B 05		    cmp ax, goal.X
	   00001624 R
 0000088F  75 0B		    jne CONT_SUPP
 00000891  66| 3B 1D		    cmp bx, goal.Y
	   00001626 R
 00000898  75 02		    jne CONT_SUPP

 0000089A  EB 48		    jmp SUPPORTED

				 
 0000089C			CONT_SUPP:
 0000089C  5E			    pop esi
 0000089D  59			    pop ecx
 0000089E  83 C6 05		    add esi, TYPE snake
 000008A1  49			    dec ecx
 000008A2  0F 85 FFFFFF3A	    jnz near PTR LOOP_SUPP

				    .IF dh == 1
 000008AD  E9 00000183		        jmp GAMEOVER
				    .ENDIF
				   
				; if not supported, then apply gravity tell supported or full into the void (Y > threshold)
 000008B2			GRAVITY:
 000008B2  8B 0D 00001461 R	    mov ecx, snakeLen
 000008B8  BE 00000000		    mov esi, 0 
 000008BD			LOOP_GRAVITY:
 000008BD  66| FF 86		    inc snake[esi].pos.Y    
	   00001418 R
				    .IF snake[esi].pos.Y >= 1Ch
 000008CE  E9 00000162		        jmp GAMEOVER 
				    .ENDIF

 000008D3  83 C6 05		    add esi, TYPE snake
 000008D6  E2 E5		    loop LOOP_GRAVITY

 000008D8  6A 64		    push 100
 000008DA  E8 00000000 E	    call Sleep

 000008DF  E9 FFFFFE3C		    jmp CHECK_SUPP

 000008E4			SUPPORTED:
 000008E4			NEXT_LOOP:
 000008E4  E9 FFFFF864			jmp MAIN_LOOP 
					 
 000008E9			FINISH:
 000008E9  E8 00000000 E	    call ClrScr
					
 000008EE  66| C7 05			mov xyUI.X, 10
	   00001635 R
	   000A
 000008F7  66| C7 05		    mov xyUI.Y, 7
	   00001637 R
	   0007
				    invoke SetConsoleCursorPosition, consoleHandle, xyUI
				    mWrite <"   ____                            _         _       _   _                 ">
 000017F1		     1		.data		
 000017F1 20 20 20 5F 5F     1		??0005 BYTE "   ____                            _         _       _   _                 ",0	
	   5F 5F 20 20 20
	   20 20 20 20 20
	   20 20 20 20 20
	   20 20 20 20 20
	   20 20 20 20 20
	   20 20 20 20 20
	   5F 20 20 20 20
	   20 20 20 20 20
	   5F 20 20 20 20
	   20 20 20 5F 20
	   20 20 5F 20 20
	   20 20 20 20 20
	   20 20 20 20 20
	   20 20 20 20 20
	   00
 00000911		     1		.code
 00000911  52		     1		push	edx
 00000912  BA 000017F1 R     1		mov	edx,OFFSET ??0005
 00000917  E8 00000000 E     1		call	WriteString
 0000091C  5A		     1		pop	edx
 0000091D  66| C7 05		    mov xyUI.X, 10
	   00001635 R
	   000A
 00000926  66| C7 05		    mov xyUI.Y, 8
	   00001637 R
	   0008
				    invoke SetConsoleCursorPosition, consoleHandle, xyUI
				    mWrite <"  / ___|___  _ __   __ _ _ __ __ _| |_ _   _| | __ _| |_(_) ___  _ __  ___ ">
 0000183D		     1		.data		
 0000183D 20 20 2F 20 5F     1		??0006 BYTE "  / ___|___  _ __   __ _ _ __ __ _| |_ _   _| | __ _| |_(_) ___  _ __  ___ ",0	
	   5F 5F 7C 5F 5F
	   5F 20 20 5F 20
	   5F 5F 20 20 20
	   5F 5F 20 5F 20
	   5F 20 5F 5F 20
	   5F 5F 20 5F 7C
	   20 7C 5F 20 5F
	   20 20 20 5F 7C
	   20 7C 20 5F 5F
	   20 5F 7C 20 7C
	   5F 28 5F 29 20
	   5F 5F 5F 20 20
	   5F 20 5F 5F 20
	   20 5F 5F 5F 20
	   00
 00000940		     1		.code
 00000940  52		     1		push	edx
 00000941  BA 0000183D R     1		mov	edx,OFFSET ??0006
 00000946  E8 00000000 E     1		call	WriteString
 0000094B  5A		     1		pop	edx
 0000094C  66| C7 05		    mov xyUI.X, 10
	   00001635 R
	   000A
 00000955  66| C7 05		    mov xyUI.Y, 9
	   00001637 R
	   0009
				    invoke SetConsoleCursorPosition, consoleHandle, xyUI
				    mWrite <" | |   / _ \| '_ \ / _` | '__/ _` | __| | | | |/ _` | __| |/ _ \| '_ \/ __|">
 00001889		     1		.data		
 00001889 20 7C 20 7C 20     1		??0007 BYTE " | |   / _ \| '_ \ / _` | '__/ _` | __| | | | |/ _` | __| |/ _ \| '_ \/ __|",0	
	   20 20 2F 20 5F
	   20 5C 7C 20 27
	   5F 20 5C 20 2F
	   20 5F 60 20 7C
	   20 27 5F 5F 2F
	   20 5F 60 20 7C
	   20 5F 5F 7C 20
	   7C 20 7C 20 7C
	   20 7C 2F 20 5F
	   60 20 7C 20 5F
	   5F 7C 20 7C 2F
	   20 5F 20 5C 7C
	   20 27 5F 20 5C
	   2F 20 5F 5F 7C
	   00
 0000096F		     1		.code
 0000096F  52		     1		push	edx
 00000970  BA 00001889 R     1		mov	edx,OFFSET ??0007
 00000975  E8 00000000 E     1		call	WriteString
 0000097A  5A		     1		pop	edx
 0000097B  66| C7 05		    mov xyUI.X, 10
	   00001635 R
	   000A
 00000984  66| C7 05		    mov xyUI.Y, 10
	   00001637 R
	   000A
				    invoke SetConsoleCursorPosition, consoleHandle, xyUI
				    mWrite <" | |__| (_) | | | | (_| | | | (_| | |_| |_| | | (_| | |_| | (_) | | | \__ \">
 000018D5		     1		.data		
 000018D5 20 7C 20 7C 5F     1		??0008 BYTE " | |__| (_) | | | | (_| | | | (_| | |_| |_| | | (_| | |_| | (_) | | | \__ \",0	
	   5F 7C 20 28 5F
	   29 20 7C 20 7C
	   20 7C 20 7C 20
	   28 5F 7C 20 7C
	   20 7C 20 7C 20
	   28 5F 7C 20 7C
	   20 7C 5F 7C 20
	   7C 5F 7C 20 7C
	   20 7C 20 28 5F
	   7C 20 7C 20 7C
	   5F 7C 20 7C 20
	   28 5F 29 20 7C
	   20 7C 20 7C 20
	   5C 5F 5F 20 5C
	   00
 0000099E		     1		.code
 0000099E  52		     1		push	edx
 0000099F  BA 000018D5 R     1		mov	edx,OFFSET ??0008
 000009A4  E8 00000000 E     1		call	WriteString
 000009A9  5A		     1		pop	edx
 000009AA  66| C7 05		    mov xyUI.X, 10
	   00001635 R
	   000A
 000009B3  66| C7 05		    mov xyUI.Y, 11
	   00001637 R
	   000B
				    invoke SetConsoleCursorPosition, consoleHandle, xyUI
				    mWrite <"  \____\___/|_| |_|\__, |_|  \__,_|\__|\__,_|_|\__,_|\__|_|\___/|_| |_|___/">
 00001921		     1		.data		
 00001921 20 20 5C 5F 5F     1		??0009 BYTE "  \____\___/|_| |_|\__, |_|  \__,_|\__|\__,_|_|\__,_|\__|_|\___/|_| |_|___/",0	
	   5F 5F 5C 5F 5F
	   5F 2F 7C 5F 7C
	   20 7C 5F 7C 5C
	   5F 5F 2C 20 7C
	   5F 7C 20 20 5C
	   5F 5F 2C 5F 7C
	   5C 5F 5F 7C 5C
	   5F 5F 2C 5F 7C
	   5F 7C 5C 5F 5F
	   2C 5F 7C 5C 5F
	   5F 7C 5F 7C 5C
	   5F 5F 5F 2F 7C
	   5F 7C 20 7C 5F
	   7C 5F 5F 5F 2F
	   00
 000009CD		     1		.code
 000009CD  52		     1		push	edx
 000009CE  BA 00001921 R     1		mov	edx,OFFSET ??0009
 000009D3  E8 00000000 E     1		call	WriteString
 000009D8  5A		     1		pop	edx
 000009D9  66| C7 05		    mov xyUI.X, 10
	   00001635 R
	   000A
 000009E2  66| C7 05		    mov xyUI.Y, 12
	   00001637 R
	   000C
				    invoke SetConsoleCursorPosition, consoleHandle, xyUI
				    mWrite <"                   |___/                                                   ">
 0000196D		     1		.data		
 0000196D 20 20 20 20 20     1		??000A BYTE "                   |___/                                                   ",0	
	   20 20 20 20 20
	   20 20 20 20 20
	   20 20 20 20 7C
	   5F 5F 5F 2F 20
	   20 20 20 20 20
	   20 20 20 20 20
	   20 20 20 20 20
	   20 20 20 20 20
	   20 20 20 20 20
	   20 20 20 20 20
	   20 20 20 20 20
	   20 20 20 20 20
	   20 20 20 20 20
	   20 20 20 20 20
	   00
 000009FC		     1		.code
 000009FC  52		     1		push	edx
 000009FD  BA 0000196D R     1		mov	edx,OFFSET ??000A
 00000A02  E8 00000000 E     1		call	WriteString
 00000A07  5A		     1		pop	edx
 00000A08  66| C7 05		    mov xyUI.X, 10
	   00001635 R
	   000A
 00000A11  66| C7 05		    mov xyUI.Y, 13
	   00001637 R
	   000D
				    invoke SetConsoleCursorPosition, consoleHandle, xyUI
 00000A2B  E8 00000000 E	    call WaitMsg

				; jump to stage selection page
 00000A30  E9 FFFFF709		    jmp SELECT_STAGE

 00000A35			GAMEOVER:
 00000A35  E8 00000000 E	    call ClrScr
					
 00000A3A  66| C7 05		    mov xyUI.X, 10
	   00001635 R
	   000A
 00000A43  66| C7 05		    mov xyUI.Y, 7
	   00001637 R
	   0007
				    invoke SetConsoleCursorPosition, consoleHandle, xyUI
				    mWrite <"   ____    _    __  __ _____    _____     _______ ____  ">
 000019B9		     1		.data		
 000019B9 20 20 20 5F 5F     1		??000B BYTE "   ____    _    __  __ _____    _____     _______ ____  ",0	
	   5F 5F 20 20 20
	   20 5F 20 20 20
	   20 5F 5F 20 20
	   5F 5F 20 5F 5F
	   5F 5F 5F 20 20
	   20 20 5F 5F 5F
	   5F 5F 20 20 20
	   20 20 5F 5F 5F
	   5F 5F 5F 5F 20
	   5F 5F 5F 5F 20
	   20 00
 00000A5D		     1		.code
 00000A5D  52		     1		push	edx
 00000A5E  BA 000019B9 R     1		mov	edx,OFFSET ??000B
 00000A63  E8 00000000 E     1		call	WriteString
 00000A68  5A		     1		pop	edx
 00000A69  66| C7 05		    mov xyUI.X, 10
	   00001635 R
	   000A
 00000A72  66| C7 05		    mov xyUI.Y, 8
	   00001637 R
	   0008
				    invoke SetConsoleCursorPosition, consoleHandle, xyUI
				    mWrite <"  / ___|  / \  |  \/  | ____|  / _ \ \   / / ____|  _ \ ">
 000019F2		     1		.data		
 000019F2 20 20 2F 20 5F     1		??000C BYTE "  / ___|  / \  |  \/  | ____|  / _ \ \   / / ____|  _ \ ",0	
	   5F 5F 7C 20 20
	   2F 20 5C 20 20
	   7C 20 20 5C 2F
	   20 20 7C 20 5F
	   5F 5F 5F 7C 20
	   20 2F 20 5F 20
	   5C 20 5C 20 20
	   20 2F 20 2F 20
	   5F 5F 5F 5F 7C
	   20 20 5F 20 5C
	   20 00
 00000A8C		     1		.code
 00000A8C  52		     1		push	edx
 00000A8D  BA 000019F2 R     1		mov	edx,OFFSET ??000C
 00000A92  E8 00000000 E     1		call	WriteString
 00000A97  5A		     1		pop	edx
 00000A98  66| C7 05		    mov xyUI.X, 10
	   00001635 R
	   000A
 00000AA1  66| C7 05		    mov xyUI.Y, 9
	   00001637 R
	   0009
				    invoke SetConsoleCursorPosition, consoleHandle, xyUI
				    mWrite <" | |  _  / _ \ | |\/| |  _|   | | | \ \ / /|  _| | |_) |">
 00001A2B		     1		.data		
 00001A2B 20 7C 20 7C 20     1		??000D BYTE " | |  _  / _ \ | |\/| |  _|   | | | \ \ / /|  _| | |_) |",0	
	   20 5F 20 20 2F
	   20 5F 20 5C 20
	   7C 20 7C 5C 2F
	   7C 20 7C 20 20
	   5F 7C 20 20 20
	   7C 20 7C 20 7C
	   20 5C 20 5C 20
	   2F 20 2F 7C 20
	   20 5F 7C 20 7C
	   20 7C 5F 29 20
	   7C 00
 00000ABB		     1		.code
 00000ABB  52		     1		push	edx
 00000ABC  BA 00001A2B R     1		mov	edx,OFFSET ??000D
 00000AC1  E8 00000000 E     1		call	WriteString
 00000AC6  5A		     1		pop	edx
 00000AC7  66| C7 05		    mov xyUI.X, 10
	   00001635 R
	   000A
 00000AD0  66| C7 05		    mov xyUI.Y, 10
	   00001637 R
	   000A
				    invoke SetConsoleCursorPosition, consoleHandle, xyUI
				    mWrite <" | |_| |/ ___ \| |  | | |___  | |_| |\ V / | |___|  _ < ">
 00001A64		     1		.data		
 00001A64 20 7C 20 7C 5F     1		??000E BYTE " | |_| |/ ___ \| |  | | |___  | |_| |\ V / | |___|  _ < ",0	
	   7C 20 7C 2F 20
	   5F 5F 5F 20 5C
	   7C 20 7C 20 20
	   7C 20 7C 20 7C
	   5F 5F 5F 20 20
	   7C 20 7C 5F 7C
	   20 7C 5C 20 56
	   20 2F 20 7C 20
	   7C 5F 5F 5F 7C
	   20 20 5F 20 3C
	   20 00
 00000AEA		     1		.code
 00000AEA  52		     1		push	edx
 00000AEB  BA 00001A64 R     1		mov	edx,OFFSET ??000E
 00000AF0  E8 00000000 E     1		call	WriteString
 00000AF5  5A		     1		pop	edx
 00000AF6  66| C7 05		    mov xyUI.X, 10
	   00001635 R
	   000A
 00000AFF  66| C7 05		    mov xyUI.Y, 11
	   00001637 R
	   000B
				    invoke SetConsoleCursorPosition, consoleHandle, xyUI
				    mWrite <"  \____/_/   \_\_|  |_|_____|  \___/  \_/  |_____|_| \_\">
 00001A9D		     1		.data		
 00001A9D 20 20 5C 5F 5F     1		??000F BYTE "  \____/_/   \_\_|  |_|_____|  \___/  \_/  |_____|_| \_\",0	
	   5F 5F 2F 5F 2F
	   20 20 20 5C 5F
	   5C 5F 7C 20 20
	   7C 5F 7C 5F 5F
	   5F 5F 5F 7C 20
	   20 5C 5F 5F 5F
	   2F 20 20 5C 5F
	   2F 20 20 7C 5F
	   5F 5F 5F 5F 7C
	   5F 7C 20 5C 5F
	   5C 00
 00000B19		     1		.code
 00000B19  52		     1		push	edx
 00000B1A  BA 00001A9D R     1		mov	edx,OFFSET ??000F
 00000B1F  E8 00000000 E     1		call	WriteString
 00000B24  5A		     1		pop	edx
 00000B25  66| C7 05		    mov xyUI.X, 10
	   00001635 R
	   000A
 00000B2E  66| C7 05		    mov xyUI.Y, 12
	   00001637 R
	   000C
				    invoke SetConsoleCursorPosition, consoleHandle, xyUI
				    mWrite <"text">
 00001AD6		     1		.data		
 00001AD6 74 65 78 74 00     1		??0010 BYTE "text",0	
 00000B48		     1		.code
 00000B48  52		     1		push	edx
 00000B49  BA 00001AD6 R     1		mov	edx,OFFSET ??0010
 00000B4E  E8 00000000 E     1		call	WriteString
 00000B53  5A		     1		pop	edx
 00000B54  E8 00000000 E		call WaitMsg
 00000B59  E9 FFFFF5E0		    jmp SELECT_STAGE

 00000B5E			END_FUNC: 
 00000B5E  E8 00000000 E	    call ClrScr
					
 00000B63  66| C7 05		    mov xyUI.X, 20
	   00001635 R
	   0014
 00000B6C  66| C7 05		    mov xyUI.Y, 7
	   00001637 R
	   0007
				    invoke SetConsoleCursorPosition, consoleHandle, xyUI
				    mWrite <"  _____ _               _____           _ "> 
 00001ADB		     1		.data		
 00001ADB 20 20 5F 5F 5F     1		??0011 BYTE "  _____ _               _____           _ ",0	
	   5F 5F 20 5F 20
	   20 20 20 20 20
	   20 20 20 20 20
	   20 20 20 20 5F
	   5F 5F 5F 5F 20
	   20 20 20 20 20
	   20 20 20 20 20
	   5F 20 00
 00000B86		     1		.code
 00000B86  52		     1		push	edx
 00000B87  BA 00001ADB R     1		mov	edx,OFFSET ??0011
 00000B8C  E8 00000000 E     1		call	WriteString
 00000B91  5A		     1		pop	edx
 00000B92  66| C7 05		    mov xyUI.X, 20
	   00001635 R
	   0014
 00000B9B  66| C7 05		    mov xyUI.Y, 8
	   00001637 R
	   0008
				    invoke SetConsoleCursorPosition, consoleHandle, xyUI
				    mWrite <" |_   _| |__   ___     | ____|_ __   __| |"> 
 00001B06		     1		.data		
 00001B06 20 7C 5F 20 20     1		??0012 BYTE " |_   _| |__   ___     | ____|_ __   __| |",0	
	   20 5F 7C 20 7C
	   5F 5F 20 20 20
	   5F 5F 5F 20 20
	   20 20 20 7C 20
	   5F 5F 5F 5F 7C
	   5F 20 5F 5F 20
	   20 20 5F 5F 7C
	   20 7C 00
 00000BB5		     1		.code
 00000BB5  52		     1		push	edx
 00000BB6  BA 00001B06 R     1		mov	edx,OFFSET ??0012
 00000BBB  E8 00000000 E     1		call	WriteString
 00000BC0  5A		     1		pop	edx
 00000BC1  66| C7 05		    mov xyUI.X, 20
	   00001635 R
	   0014
 00000BCA  66| C7 05		    mov xyUI.Y, 9
	   00001637 R
	   0009
				    invoke SetConsoleCursorPosition, consoleHandle, xyUI
				    mWrite <"   | | | '_ \ / _ \    |  _| | '_ \ / _` |"> 
 00001B31		     1		.data		
 00001B31 20 20 20 7C 20     1		??0013 BYTE "   | | | '_ \ / _ \    |  _| | '_ \ / _` |",0	
	   7C 20 7C 20 27
	   5F 20 5C 20 2F
	   20 5F 20 5C 20
	   20 20 20 7C 20
	   20 5F 7C 20 7C
	   20 27 5F 20 5C
	   20 2F 20 5F 60
	   20 7C 00
 00000BE4		     1		.code
 00000BE4  52		     1		push	edx
 00000BE5  BA 00001B31 R     1		mov	edx,OFFSET ??0013
 00000BEA  E8 00000000 E     1		call	WriteString
 00000BEF  5A		     1		pop	edx
 00000BF0  66| C7 05		    mov xyUI.X, 20
	   00001635 R
	   0014
 00000BF9  66| C7 05		    mov xyUI.Y, 10
	   00001637 R
	   000A
				    invoke SetConsoleCursorPosition, consoleHandle, xyUI
				    mWrite <"   | | | | | |  __/    | |___| | | | (_| |"> 
 00001B5C		     1		.data		
 00001B5C 20 20 20 7C 20     1		??0014 BYTE "   | | | | | |  __/    | |___| | | | (_| |",0	
	   7C 20 7C 20 7C
	   20 7C 20 7C 20
	   20 5F 5F 2F 20
	   20 20 20 7C 20
	   7C 5F 5F 5F 7C
	   20 7C 20 7C 20
	   7C 20 28 5F 7C
	   20 7C 00
 00000C13		     1		.code
 00000C13  52		     1		push	edx
 00000C14  BA 00001B5C R     1		mov	edx,OFFSET ??0014
 00000C19  E8 00000000 E     1		call	WriteString
 00000C1E  5A		     1		pop	edx
 00000C1F  66| C7 05		    mov xyUI.X, 20
	   00001635 R
	   0014
 00000C28  66| C7 05		    mov xyUI.Y, 11
	   00001637 R
	   000B
				    invoke SetConsoleCursorPosition, consoleHandle, xyUI
				    mWrite <"   |_| |_| |_|\___|    |_____|_| |_|\__,_|">
 00001B87		     1		.data		
 00001B87 20 20 20 7C 5F     1		??0015 BYTE "   |_| |_| |_|\___|    |_____|_| |_|\__,_|",0	
	   7C 20 7C 5F 7C
	   20 7C 5F 7C 5C
	   5F 5F 5F 7C 20
	   20 20 20 7C 5F
	   5F 5F 5F 5F 7C
	   5F 7C 20 7C 5F
	   7C 5C 5F 5F 2C
	   5F 7C 00
 00000C42		     1		.code
 00000C42  52		     1		push	edx
 00000C43  BA 00001B87 R     1		mov	edx,OFFSET ??0015
 00000C48  E8 00000000 E     1		call	WriteString
 00000C4D  5A		     1		pop	edx
 00000C4E  66| C7 05		    mov xyUI.X, 20
	   00001635 R
	   0014
 00000C57  66| C7 05		    mov xyUI.Y, 12
	   00001637 R
	   000C
				    invoke SetConsoleCursorPosition, consoleHandle, xyUI
 00000C71  E8 00000000 E		call WaitMsg 
					exit
 00000C7D			main ENDP 

 00000C7D			Select_Load_Stage PROC
 00000C7D			chooseStage:
 00000C7D  66| C7 05		    mov xyUI.X, 10
	   00001635 R
	   000A
 00000C86  66| C7 05			mov xyUI.Y, 7
	   00001637 R
	   0007
					INVOKE SetConsoleCursorPosition, consoleHandle, xyUI
				    mWrite <"   ____ _                           __   __                 ____  _                    ">
 00001BB2		     1		.data		
 00001BB2 20 20 20 5F 5F     1		??0016 BYTE "   ____ _                           __   __                 ____  _                    ",0	
	   5F 5F 20 5F 20
	   20 20 20 20 20
	   20 20 20 20 20
	   20 20 20 20 20
	   20 20 20 20 20
	   20 20 20 20 20
	   20 5F 5F 20 20
	   20 5F 5F 20 20
	   20 20 20 20 20
	   20 20 20 20 20
	   20 20 20 20 20
	   5F 5F 5F 5F 20
	   20 5F 20 20 20
	   20 20 20 20 20
	   20 20 20 20 20
	   20 20 20 20 20
	   20 20 00
 00000CA0		     1		.code
 00000CA0  52		     1		push	edx
 00000CA1  BA 00001BB2 R     1		mov	edx,OFFSET ??0016
 00000CA6  E8 00000000 E     1		call	WriteString
 00000CAB  5A		     1		pop	edx
 00000CAC  66| C7 05		    mov xyUI.X, 10
	   00001635 R
	   000A
 00000CB5  66| C7 05		    mov xyUI.Y, 8
	   00001637 R
	   0008
				    INVOKE SetConsoleCursorPosition, consoleHandle, xyUI
				    mWrite <"  / ___| |__   ___   ___  ___  ___  \ \ / /__  _   _ _ __  / ___|| |_ __ _  __ _  ___  ">
 00001C0A		     1		.data		
 00001C0A 20 20 2F 20 5F     1		??0017 BYTE "  / ___| |__   ___   ___  ___  ___  \ \ / /__  _   _ _ __  / ___|| |_ __ _  __ _  ___  ",0	
	   5F 5F 7C 20 7C
	   5F 5F 20 20 20
	   5F 5F 5F 20 20
	   20 5F 5F 5F 20
	   20 5F 5F 5F 20
	   20 5F 5F 5F 20
	   20 5C 20 5C 20
	   2F 20 2F 5F 5F
	   20 20 5F 20 20
	   20 5F 20 5F 20
	   5F 5F 20 20 2F
	   20 5F 5F 5F 7C
	   7C 20 7C 5F 20
	   5F 5F 20 5F 20
	   20 5F 5F 20 5F
	   20 20 5F 5F 5F
	   20 20 00
 00000CCF		     1		.code
 00000CCF  52		     1		push	edx
 00000CD0  BA 00001C0A R     1		mov	edx,OFFSET ??0017
 00000CD5  E8 00000000 E     1		call	WriteString
 00000CDA  5A		     1		pop	edx
 00000CDB  66| C7 05		    mov xyUI.X, 10
	   00001635 R
	   000A
 00000CE4  66| C7 05		    mov xyUI.Y, 9
	   00001637 R
	   0009
				    INVOKE SetConsoleCursorPosition, consoleHandle, xyUI
				    mWrite <" | |   | '_ \ / _ \ / _ \/ __|/ _ \  \ V / _ \| | | | '__| \___ \| __/ _` |/ _` |/ _ \ ">
 00001C62		     1		.data		
 00001C62 20 7C 20 7C 20     1		??0018 BYTE " | |   | '_ \ / _ \ / _ \/ __|/ _ \  \ V / _ \| | | | '__| \___ \| __/ _` |/ _` |/ _ \ ",0	
	   20 20 7C 20 27
	   5F 20 5C 20 2F
	   20 5F 20 5C 20
	   2F 20 5F 20 5C
	   2F 20 5F 5F 7C
	   2F 20 5F 20 5C
	   20 20 5C 20 56
	   20 2F 20 5F 20
	   5C 7C 20 7C 20
	   7C 20 7C 20 27
	   5F 5F 7C 20 5C
	   5F 5F 5F 20 5C
	   7C 20 5F 5F 2F
	   20 5F 60 20 7C
	   2F 20 5F 60 20
	   7C 2F 20 5F 20
	   5C 20 00
 00000CFE		     1		.code
 00000CFE  52		     1		push	edx
 00000CFF  BA 00001C62 R     1		mov	edx,OFFSET ??0018
 00000D04  E8 00000000 E     1		call	WriteString
 00000D09  5A		     1		pop	edx
 00000D0A  66| C7 05		    mov xyUI.X, 10
	   00001635 R
	   000A
 00000D13  66| C7 05		    mov xyUI.Y, 10
	   00001637 R
	   000A
				    INVOKE SetConsoleCursorPosition, consoleHandle, xyUI
				    mWrite <" | |___| | | | (_) | (_) \__ \  __/   | | (_) | |_| | |     ___) | || (_| | (_| |  __/ ">
 00001CBA		     1		.data		
 00001CBA 20 7C 20 7C 5F     1		??0019 BYTE " | |___| | | | (_) | (_) \__ \  __/   | | (_) | |_| | |     ___) | || (_| | (_| |  __/ ",0	
	   5F 5F 7C 20 7C
	   20 7C 20 7C 20
	   28 5F 29 20 7C
	   20 28 5F 29 20
	   5C 5F 5F 20 5C
	   20 20 5F 5F 2F
	   20 20 20 7C 20
	   7C 20 28 5F 29
	   20 7C 20 7C 5F
	   7C 20 7C 20 7C
	   20 20 20 20 20
	   5F 5F 5F 29 20
	   7C 20 7C 7C 20
	   28 5F 7C 20 7C
	   20 28 5F 7C 20
	   7C 20 20 5F 5F
	   2F 20 00
 00000D2D		     1		.code
 00000D2D  52		     1		push	edx
 00000D2E  BA 00001CBA R     1		mov	edx,OFFSET ??0019
 00000D33  E8 00000000 E     1		call	WriteString
 00000D38  5A		     1		pop	edx
 00000D39  66| C7 05		    mov xyUI.X, 10
	   00001635 R
	   000A
 00000D42  66| C7 05		    mov xyUI.Y, 11
	   00001637 R
	   000B
				    INVOKE SetConsoleCursorPosition, consoleHandle, xyUI
				    mWrite <"  \____|_| |_|\___/ \___/|___/\___|   |_|\___/ \__,_|_|    |____/ \__\__,_|\__, |\___| ">
 00001D12		     1		.data		
 00001D12 20 20 5C 5F 5F     1		??001A BYTE "  \____|_| |_|\___/ \___/|___/\___|   |_|\___/ \__,_|_|    |____/ \__\__,_|\__, |\___| ",0	
	   5F 5F 7C 5F 7C
	   20 7C 5F 7C 5C
	   5F 5F 5F 2F 20
	   5C 5F 5F 5F 2F
	   7C 5F 5F 5F 2F
	   5C 5F 5F 5F 7C
	   20 20 20 7C 5F
	   7C 5C 5F 5F 5F
	   2F 20 5C 5F 5F
	   2C 5F 7C 5F 7C
	   20 20 20 20 7C
	   5F 5F 5F 5F 2F
	   20 5C 5F 5F 5C
	   5F 5F 2C 5F 7C
	   5C 5F 5F 2C 20
	   7C 5C 5F 5F 5F
	   7C 20 00
 00000D5C		     1		.code
 00000D5C  52		     1		push	edx
 00000D5D  BA 00001D12 R     1		mov	edx,OFFSET ??001A
 00000D62  E8 00000000 E     1		call	WriteString
 00000D67  5A		     1		pop	edx
 00000D68  66| C7 05		    mov xyUI.X, 10
	   00001635 R
	   000A
 00000D71  66| C7 05		    mov xyUI.Y, 12
	   00001637 R
	   000C
				    INVOKE SetConsoleCursorPosition, consoleHandle, xyUI
				    mWrite <"                                                                           |___/       ">
 00001D6A		     1		.data		
 00001D6A 20 20 20 20 20     1		??001B BYTE "                                                                           |___/       ",0	
	   20 20 20 20 20
	   20 20 20 20 20
	   20 20 20 20 20
	   20 20 20 20 20
	   20 20 20 20 20
	   20 20 20 20 20
	   20 20 20 20 20
	   20 20 20 20 20
	   20 20 20 20 20
	   20 20 20 20 20
	   20 20 20 20 20
	   20 20 20 20 20
	   20 20 20 20 20
	   20 20 20 20 20
	   7C 5F 5F 5F 2F
	   20 20 20 20 20
	   20 20 00
 00000D8B		     1		.code
 00000D8B  52		     1		push	edx
 00000D8C  BA 00001D6A R     1		mov	edx,OFFSET ??001B
 00000D91  E8 00000000 E     1		call	WriteString
 00000D96  5A		     1		pop	edx
 00000D97  66| C7 05		    mov xyUI.X, 10
	   00001635 R
	   000A
 00000DA0  66| C7 05		    mov xyUI.Y, 14
	   00001637 R
	   000E
				    INVOKE SetConsoleCursorPosition, consoleHandle, xyUI
				    mWrite <"(eg 01, 02, ..., 99) : ">
 00001DC2		     1		.data		
 00001DC2 28 65 67 20 30     1		??001C BYTE "(eg 01, 02, ..., 99) : ",0	
	   31 2C 20 30 32
	   2C 20 2E 2E 2E
	   2C 20 39 39 29
	   20 3A 20 00
 00000DBA		     1		.code
 00000DBA  52		     1		push	edx
 00000DBB  BA 00001DC2 R     1		mov	edx,OFFSET ??001C
 00000DC0  E8 00000000 E     1		call	WriteString
 00000DC5  5A		     1		pop	edx
 00000DC6  BA 00001388 R		mov edx, offset fileInput
 00000DCB  B9 00000064			mov ecx, sizeof fileInput
 00000DD0  E8 00000000 E		call ReadString

 00000DD5  B9 00000064			mov ecx, sizeof fileInput 
 00000DDA  BF 00001388 R		mov edi, offset fileInput
 00000DDF  B0 00			mov al, 0
 00000DE1  F2/ AE			repne scasb
 00000DE3  BB 00000064			mov ebx, sizeof fileInput
 00000DE8  2B D9		    sub ebx, ecx
 00000DEA  4B			    dec ebx ; get lenghof fileInput
 00000DEB  83 FB 02			cmp ebx, 2
 00000DEE  75 77			jne file_not_ok
					
 00000DF0  66| C7 05		    mov xyUI.X, 10
	   00001635 R
	   000A
 00000DF9  66| C7 05		    mov xyUI.Y, 15
	   00001637 R
	   000F
				    INVOKE SetConsoleCursorPosition, consoleHandle, xyUI
					; handle full filename
 00000E13  A0 00001388 R		mov al, fileInput[0]
 00000E18  A2 000013FB R		mov filename[15], al
 00000E1D  A2 00001632 R		mov stageText[0], al
 00000E22  A0 00001389 R		mov al, fileInput[1]
 00000E27  A2 000013FC R		mov filename[16], al
 00000E2C  A2 00001633 R		mov stageText[1], al
					
					mWrite <"Loading Stage : ">
 00001DDA		     1		.data		
 00001DDA 4C 6F 61 64 69     1		??001D BYTE "Loading Stage : ",0	
	   6E 67 20 53 74
	   61 67 65 20 3A
	   20 00
 00000E31		     1		.code
 00000E31  52		     1		push	edx
 00000E32  BA 00001DDA R     1		mov	edx,OFFSET ??001D
 00000E37  E8 00000000 E     1		call	WriteString
 00000E3C  5A		     1		pop	edx
 00000E3D  BA 00001632 R		mov edx, offset stageText
 00000E42  E8 00000000 E		call WriteString
					mWrite <", ">
 00001DEB		     1		.data		
 00001DEB 2C 20 00	     1		??001E BYTE ", ",0	
 00000E47		     1		.code
 00000E47  52		     1		push	edx
 00000E48  BA 00001DEB R     1		mov	edx,OFFSET ??001E
 00000E4D  E8 00000000 E     1		call	WriteString
 00000E52  5A		     1		pop	edx
 00000E53  BA 000013EC R		mov edx, offset filename
 00000E58  E8 00000000 E		call OpenInputFile
 00000E5D  A3 00001402 R		mov fileHandle, eax
 00000E62  83 F8 FF			cmp eax,INVALID_HANDLE_VALUE
 00000E65  75 39			jne file_ok
 00000E67			file_not_ok:
 00000E67  E8 00000000 E		call ClrScr
 00000E6C  66| C7 05			mov xyUI.X, 10
	   00001635 R
	   000A
 00000E75  66| C7 05		    mov xyUI.Y, 13
	   00001637 R
	   000D
				    INVOKE SetConsoleCursorPosition, consoleHandle, xyUI
					mWrite <"Stage not found.",0dh,0ah>
 00001DEE		     1		.data		
 00001DEE 53 74 61 67 65     1		??001F BYTE "Stage not found.",0dh,0ah,0	
	   20 6E 6F 74 20
	   66 6F 75 6E 64
	   2E 0D 0A 00
 00000E8F		     1		.code
 00000E8F  52		     1		push	edx
 00000E90  BA 00001DEE R     1		mov	edx,OFFSET ??001F
 00000E95  E8 00000000 E     1		call	WriteString
 00000E9A  5A		     1		pop	edx
 00000E9B  E9 FFFFFDDD			jmp chooseStage
 00000EA0			file_ok:
 00000EA0  BA 00000000 R		mov edx, offset buffer
 00000EA5  B9 00001388			mov ecx, BufferSize
 00000EAA  E8 00000000 E		call ReadFromFile
 00000EAF  73 16			jnc check_Buffer_Size
					mWrite "Error reading file. "
 00001E01		     1		.data		
 00001E01 45 72 72 6F 72     1		??0020 BYTE "Error reading file. ",0	
	   20 72 65 61 64
	   69 6E 67 20 66
	   69 6C 65 2E 20
	   00
 00000EB1		     1		.code
 00000EB1  52		     1		push	edx
 00000EB2  BA 00001E01 R     1		mov	edx,OFFSET ??0020
 00000EB7  E8 00000000 E     1		call	WriteString
 00000EBC  5A		     1		pop	edx
 00000EBD  E8 00000000 E		call WriteWindowsMsg
 00000EC2  E9 00000264			jmp close_File
 00000EC7			check_Buffer_Size:
 00000EC7  3D 00001388			cmp eax, BufferSize
 00000ECC  72 11			jb buf_size_ok
					mWrite <"Error: Buffer too small for the file",0dh,0ah>
 00001E16		     1		.data		
 00001E16 45 72 72 6F 72     1		??0021 BYTE "Error: Buffer too small for the file",0dh,0ah,0	
	   3A 20 42 75 66
	   66 65 72 20 74
	   6F 6F 20 73 6D
	   61 6C 6C 20 66
	   6F 72 20 74 68
	   65 20 66 69 6C
	   65 0D 0A 00
 00000ECE		     1		.code
 00000ECE  52		     1		push	edx
 00000ECF  BA 00001E16 R     1		mov	edx,OFFSET ??0021
 00000ED4  E8 00000000 E     1		call	WriteString
 00000ED9  5A		     1		pop	edx
 00000EDA  E9 00000256			jmp quit
 00000EDF			buf_size_ok:
 00000EDF  C6 80 00000000 R		mov buffer[eax],0
	   00
 00000EE6  8B C8			mov ecx, eax
 00000EE8  BB 00000000			mov ebx, 0
 00000EED  33 D2			xor edx,edx
 00000EEF  33 F6			xor esi,esi

				; initialize
 00000EF1  C7 05 00001461 R	    mov snakeLen, 0 
	   00000000
 00000EFB  C7 05 000015E0 R	    mov obstacleLen, 0 
	   00000000
 00000F05  C7 05 000014B0 R	    mov appleLen, 0 
	   00000000
 00000F0F  C7 05 00001620 R	    mov boxLen, 0
	   00000000

 00000F19			readEachChar:
 00000F19  0F B6 83			movzx eax, byte ptr [buffer + ebx]
	   00000000 R
 00000F20  83 F8 30			cmp eax, '0'
 00000F23  0F 82 00000190		jb notNUM
 00000F29  83 F8 39			cmp eax, '9'
 00000F2C  0F 87 00000187		ja notNUM
					; isNum
					; handle First digit
 00000F32  83 E8 30			sub eax, '0'
 00000F35  52				push edx
 00000F36  53				push ebx
 00000F37  BB 0000000A			mov ebx, 10
 00000F3C  F7 E3			mul ebx
 00000F3E  5B				pop ebx
 00000F3F  5A				pop edx
					; handle second digit
 00000F40  43				inc ebx
 00000F41  49				dec ecx
 00000F42  52				push edx
 00000F43  0F B6 93			movzx edx, byte ptr [buffer + ebx]
	   00000000 R
 00000F4A  83 EA 30			sub edx, '0'
 00000F4D  03 C2			add eax, edx
 00000F4F  5A				pop edx
					; call WriteDec ; Get integer in eax !
					
					; dx
					; 00 for snake X ; 01 for snake Y ; line 1
					; 10 for obs X ; 11 for obs Y     ; line 2
					; 20 for goal X ; 21 for goal Y   ; line 3
					; 30 for apple X ; 31 for apple Y ; line 4
					; 40 for trap X ; 41 for trap Y   ; line 5
					; 50 for box X ; 51 for box Y     ; line 6
 00000F50  66| 83 FA 00			cmp dx, 0
 00000F54  74 6A			je loadSnakeX
 00000F56  66| 83 FA 01			cmp dx, 1
 00000F5A  74 72			je loadSnakeY
 00000F5C  66| 83 FA 0A			cmp dx, 10
 00000F60  0F 84 0000008B		je loadObsX
 00000F66  66| 83 FA 0B			cmp dx, 11
 00000F6A  0F 84 0000008D		je loadObsY
 00000F70  66| 83 FA 14			cmp dx, 20
 00000F74  0F 84 000000A6		je loadGoalX
 00000F7A  66| 83 FA 15			cmp dx, 21
 00000F7E  0F 84 000000A7		je loadGoalY
 00000F84  66| 83 FA 1E			cmp dx, 30
 00000F88  0F 84 000000A8		je loadAppleX
 00000F8E  66| 83 FA 1F			cmp dx, 31
 00000F92  0F 84 000000AA		je loadAppleY
 00000F98  66| 83 FA 28			cmp dx, 40
 00000F9C  0F 84 000000EB		je loadTrapX
 00000FA2  66| 83 FA 29			cmp dx, 41
 00000FA6  0F 84 000000ED		je loadTrapY
 00000FAC  66| 83 FA 32			cmp dx, 50
 00000FB0  0F 84 000000AF		je loadBoxesX
 00000FB6  66| 83 FA 33			cmp dx, 51
 00000FBA  0F 84 000000B1		je loadBoxesY
				;------------------------
 00000FC0			loadSnakeX:
 00000FC0  66| 89 86			mov snake[esi].pos.X, ax
	   00001416 R
 00000FC7  8B C6			mov eax, esi
 00000FC9  E9 00000151			jmp looping
 00000FCE			loadSnakeY:
 00000FCE  66| 89 86			mov snake[esi].pos.Y, ax
	   00001418 R
 00000FD5  C6 86 0000141A R		mov snake[esi].dir, 0
	   00
 00000FDC  83 C6 05			add esi,TYPE snake
 00000FDF  A1 00001461 R		mov eax, snakeLen
 00000FE4  83 C0 01			add eax, 1
 00000FE7  A3 00001461 R		mov snakeLen, eax
 00000FEC  E9 0000012E			jmp looping
 00000FF1			loadObsX:
 00000FF1  66| 89 86			mov obstacles[esi].pos.X, ax
	   000014B4 R
 00000FF8  E9 00000122			jmp looping
 00000FFD			loadObsY:
 00000FFD  66| 89 86			mov obstacles[esi].pos.Y, ax
	   000014B6 R
 00001004  C6 86 000014B8 R		mov obstacles[esi].harmful, 0
	   00
 0000100B  83 C6 05			add esi,TYPE obstacles
 0000100E  A1 000015E0 R		mov eax, obstacleLen
 00001013  83 C0 01			add eax, 1
 00001016  A3 000015E0 R		mov obstacleLen, eax
 0000101B  E9 000000FF			jmp looping
 00001020			loadGoalX:
 00001020  66| A3			mov goal.X, ax
	   00001624 R
 00001026  E9 000000F4			jmp looping
 0000102B			loadGoalY:
 0000102B  66| A3			mov goal.Y, ax
	   00001626 R
 00001031  E9 000000E9			jmp looping
 00001036			loadAppleX:
 00001036  66| 89 86			mov apples[esi].pos.X, ax
	   00001465 R
 0000103D  E9 000000DD			jmp looping
 00001042			loadAppleY:
 00001042  66| 89 86			mov apples[esi].pos.Y, ax
	   00001467 R
 00001049  C6 86 00001469 R	    mov apples[esi].eaten, 0
	   00
 00001050  83 C6 05			add esi,TYPE apples
 00001053  A1 000014B0 R		mov eax, appleLen
 00001058  83 C0 01			add eax, 1
 0000105B  A3 000014B0 R		mov appleLen,eax
 00001060  E9 000000BA			jmp looping
 00001065			loadBoxesX:
 00001065  66| 89 86			mov boxes[esi].X, ax
	   000015E4 R
 0000106C  E9 000000AE			jmp looping
 00001071			loadBoxesY:
 00001071  66| 89 86			mov boxes[esi].Y, ax
	   000015E6 R
 00001078  83 C6 04			add esi,TYPE boxes
 0000107B  A1 00001620 R		mov eax, boxLen
 00001080  83 C0 01			add eax, 1
 00001083  A3 00001620 R		mov boxLen, eax
 00001088  E9 00000092			jmp looping
 0000108D			loadTrapX:
 0000108D  66| 89 86			mov obstacles[esi].pos.X, ax
	   000014B4 R
 00001094  E9 00000086			jmp looping
 00001099			loadTrapY:
 00001099  66| 89 86			mov obstacles[esi].pos.Y, ax
	   000014B6 R
 000010A0  C6 86 000014B8 R		mov obstacles[esi].harmful, 1
	   01
 000010A7  83 C6 05			add esi,TYPE obstacles
 000010AA  A1 000015E0 R		mov eax, obstacleLen
 000010AF  83 C0 01			add eax, 1
 000010B2  A3 000015E0 R		mov obstacleLen, eax
 000010B7  EB 66			jmp looping
				;------------------------
 000010B9			notNUM:
 000010B9  83 F8 2C			cmp eax, ','
 000010BC  74 57			je casePosY
 000010BE  83 F8 3B			cmp eax, ';'
 000010C1  74 57			je caseNextPos
				; nextLine
 000010C3  33 F6			xor esi, esi
				;	add edx, 9
 000010C5  49				dec ecx
 000010C6  43				inc ebx
					
				; -----------------
				    .IF edx <= 9
 000010CC  BA 0000000A		        mov edx,10
				    .ELSEIF edx <= 19
 000010D8  BA 00000014		        mov edx,20
				    .ELSEIF edx <= 29
 000010E4  BA 0000001E		        mov edx,30
				    .ELSEIF edx <= 39
 000010F0  BA 00000028		        mov edx,40
				    .ELSE
 000010F7  BA 00000032		        mov edx,50
				    .ENDIF
				; -----------------	
					
 000010FC  66| 83 FA 28			cmp dx, 40 ; handle trap data
 00001100  75 1D			jne looping
 00001102  52				push edx
 00001103  8B 35 000015E0 R		mov esi, obstacleLen
 00001109  B8 00000005			mov eax, TYPE obstacles
 0000110E  F7 E6			mul esi
 00001110  8B F0			mov esi, eax
 00001112  5A				pop edx
 00001113  EB 0A			jmp looping
 00001115			casePosY:
 00001115  83 C2 01			add edx, 1
 00001118  EB 05			jmp looping
 0000111A			caseNextPos:
 0000111A  83 C2 FF			add edx, -1
 0000111D  EB 00			jmp looping
 0000111F			looping:
 0000111F  43				inc ebx
 00001120  49				dec ecx
 00001121  83 F9 00			cmp ecx,0
 00001124  74 05			je close_File 
 00001126  E9 FFFFFDEE			jmp readEachChar
					;-----------------------
 0000112B			close_File:
 0000112B  A1 00001402 R		mov eax, fileHandle
 00001130  E8 00000000 E		call CloseFile
 00001135			quit:
 00001135  C3				ret
 00001136			Select_Load_Stage ENDP
				END main
Microsoft (R) Macro Assembler Version 6.11		    12/07/25 22:06:07
src\main.asm						     Symbols 2 - 1




Macros:

                N a m e                 Type

IsDefined  . . . . . . . . . . .	Func
Startup  . . . . . . . . . . . .	Proc
mDumpMem . . . . . . . . . . . .	Proc
mDump  . . . . . . . . . . . . .	Proc
mGotoxy  . . . . . . . . . . . .	Proc
mReadString  . . . . . . . . . .	Proc
mShowRegister  . . . . . . . . .	Proc
mShow  . . . . . . . . . . . . .	Proc
mWriteLn . . . . . . . . . . . .	Proc
mWriteSpace  . . . . . . . . . .	Proc
mWriteString . . . . . . . . . .	Proc
mWrite . . . . . . . . . . . . .	Proc


Structures and Unions:

                N a m e                  Size
                                         Offset      Type

APPLE  . . . . . . . . . . . . .	 00000005
  pos  . . . . . . . . . . . . .	 00000000	 DWord
  eaten  . . . . . . . . . . . .	 00000004	 Byte
BLOCK  . . . . . . . . . . . . .	 00000005
  pos  . . . . . . . . . . . . .	 00000000	 DWord
  dir  . . . . . . . . . . . . .	 00000004	 Byte
CONSOLE_CURSOR_INFO  . . . . . .	 00000008
  dwSize . . . . . . . . . . . .	 00000000	 DWord
  bVisible . . . . . . . . . . .	 00000004	 DWord
CONSOLE_SCREEN_BUFFER_INFO . . .	 00000016
  dwSize . . . . . . . . . . . .	 00000000	 DWord
  dwCursorPosition . . . . . . .	 00000004	 DWord
  wAttributes  . . . . . . . . .	 00000008	 Word
  srWindow . . . . . . . . . . .	 0000000A	 QWord
  dwMaximumWindowSize  . . . . .	 00000012	 DWord
COORD  . . . . . . . . . . . . .	 00000004
  X  . . . . . . . . . . . . . .	 00000000	 Word
  Y  . . . . . . . . . . . . . .	 00000002	 Word
FILETIME . . . . . . . . . . . .	 00000008
  loDateTime . . . . . . . . . .	 00000000	 DWord
  hiDateTime . . . . . . . . . .	 00000004	 DWord
FOCUS_EVENT_RECORD . . . . . . .	 00000004
  bSetFocus  . . . . . . . . . .	 00000000	 DWord
FPU_ENVIRON  . . . . . . . . . .	 0000001C
  controlWord  . . . . . . . . .	 00000000	 Word
  statusWord . . . . . . . . . .	 00000004	 Word
  tagWord  . . . . . . . . . . .	 00000008	 Word
  instrPointerOffset . . . . . .	 0000000C	 DWord
  instrPointerSelector . . . . .	 00000010	 DWord
  operandPointerOffset . . . . .	 00000014	 DWord
  operandPointerSelector . . . .	 00000018	 Word
INPUT_RECORD . . . . . . . . . .	 00000014
  EventType  . . . . . . . . . .	 00000000	 Word
  Event  . . . . . . . . . . . .	 00000004	  00000010
  bKeyDown . . . . . . . . . . .	 00000000	 DWord
  wRepeatCount . . . . . . . . .	 00000004	 Word
  wVirtualKeyCode  . . . . . . .	 00000006	 Word
  wVirtualScanCode . . . . . . .	 00000008	 Word
  uChar  . . . . . . . . . . . .	 0000000A	 Word
  UnicodeChar  . . . . . . . . .	 00000000	 Word
  AsciiChar  . . . . . . . . . .	 00000000	 Byte
  dwControlKeyState  . . . . . .	 0000000C	 DWord
  dwMousePosition  . . . . . . .	 00000000	 DWord
  dwButtonState  . . . . . . . .	 00000004	 DWord
  dwMouseControlKeyState . . . .	 00000008	 DWord
  dwEventFlags . . . . . . . . .	 0000000C	 DWord
  dwSize . . . . . . . . . . . .	 00000000	 DWord
  dwCommandId  . . . . . . . . .	 00000000	 DWord
  bSetFocus  . . . . . . . . . .	 00000000	 DWord
KEY_EVENT_RECORD . . . . . . . .	 00000010
  bKeyDown . . . . . . . . . . .	 00000000	 DWord
  wRepeatCount . . . . . . . . .	 00000004	 Word
  wVirtualKeyCode  . . . . . . .	 00000006	 Word
  wVirtualScanCode . . . . . . .	 00000008	 Word
  uChar  . . . . . . . . . . . .	 0000000A	 Word
  UnicodeChar  . . . . . . . . .	 00000000	 Word
  AsciiChar  . . . . . . . . . .	 00000000	 Byte
  dwControlKeyState  . . . . . .	 0000000C	 DWord
MENU_EVENT_RECORD  . . . . . . .	 00000004
  dwCommandId  . . . . . . . . .	 00000000	 DWord
MOUSE_EVENT_RECORD . . . . . . .	 00000010
  dwMousePosition  . . . . . . .	 00000000	 DWord
  dwButtonState  . . . . . . . .	 00000004	 DWord
  dwMouseControlKeyState . . . .	 00000008	 DWord
  dwEventFlags . . . . . . . . .	 0000000C	 DWord
MSGStruct  . . . . . . . . . . .	 0000001C
  msgWnd . . . . . . . . . . . .	 00000000	 DWord
  msgMessage . . . . . . . . . .	 00000004	 DWord
  msgWparam  . . . . . . . . . .	 00000008	 DWord
  msgLparam  . . . . . . . . . .	 0000000C	 DWord
  msgTime  . . . . . . . . . . .	 00000010	 DWord
  msgPt  . . . . . . . . . . . .	 00000014	 QWord
OBSTACLE . . . . . . . . . . . .	 00000005
  pos  . . . . . . . . . . . . .	 00000000	 DWord
  harmful  . . . . . . . . . . .	 00000004	 Byte
POINT  . . . . . . . . . . . . .	 00000008
  X  . . . . . . . . . . . . . .	 00000000	 DWord
  Y  . . . . . . . . . . . . . .	 00000004	 DWord
RECT . . . . . . . . . . . . . .	 00000010
  left . . . . . . . . . . . . .	 00000000	 DWord
  top  . . . . . . . . . . . . .	 00000004	 DWord
  right  . . . . . . . . . . . .	 00000008	 DWord
  bottom . . . . . . . . . . . .	 0000000C	 DWord
SMALL_RECT . . . . . . . . . . .	 00000008
  Left . . . . . . . . . . . . .	 00000000	 Word
  Top  . . . . . . . . . . . . .	 00000002	 Word
  Right  . . . . . . . . . . . .	 00000004	 Word
  Bottom . . . . . . . . . . . .	 00000006	 Word
SYSTEMTIME . . . . . . . . . . .	 00000010
  wYear  . . . . . . . . . . . .	 00000000	 Word
  wMonth . . . . . . . . . . . .	 00000002	 Word
  wDayOfWeek . . . . . . . . . .	 00000004	 Word
  wDay . . . . . . . . . . . . .	 00000006	 Word
  wHour  . . . . . . . . . . . .	 00000008	 Word
  wMinute  . . . . . . . . . . .	 0000000A	 Word
  wSecond  . . . . . . . . . . .	 0000000C	 Word
  wMilliseconds  . . . . . . . .	 0000000E	 Word
WINDOW_BUFFER_SIZE_RECORD  . . .	 00000004
  dwSize . . . . . . . . . . . .	 00000000	 DWord
WNDCLASS . . . . . . . . . . . .	 00000028
  style  . . . . . . . . . . . .	 00000000	 DWord
  lpfnWndProc  . . . . . . . . .	 00000004	 DWord
  cbClsExtra . . . . . . . . . .	 00000008	 DWord
  cbWndExtra . . . . . . . . . .	 0000000C	 DWord
  hInstance  . . . . . . . . . .	 00000010	 DWord
  hIcon  . . . . . . . . . . . .	 00000014	 DWord
  hCursor  . . . . . . . . . . .	 00000018	 DWord
  hbrBackground  . . . . . . . .	 0000001C	 DWord
  lpszMenuName . . . . . . . . .	 00000020	 DWord
  lpszClassName  . . . . . . . .	 00000024	 DWord


Segments and Groups:

                N a m e                 Size     Length   Align   Combine Class

FLAT . . . . . . . . . . . . . .	GROUP
STACK  . . . . . . . . . . . . .	32 Bit	 00001000 DWord	  Stack	  'STACK'	 
_DATA  . . . . . . . . . . . . .	32 Bit	 00001E3D DWord	  Public  'DATA'	
_TEXT  . . . . . . . . . . . . .	32 Bit	 00001136 DWord	  Public  'CODE'	


Procedures,  parameters and locals:

                N a m e                 Type     Value    Attr

CheckIntersection  . . . . . . .	P Near	 00000000 FLAT	Length= 00000000 External STDCALL
CheckSupported . . . . . . . . .	P Near	 00000000 FLAT	Length= 00000000 External STDCALL
CloseFile  . . . . . . . . . . .	P Near	 00000000 FLAT	Length= 00000000 External STDCALL
CloseHandle  . . . . . . . . . .	P Near	 00000000 FLAT	Length= 00000000 External STDCALL
Clrscr . . . . . . . . . . . . .	P Near	 00000000 FLAT	Length= 00000000 External STDCALL
CreateFileA  . . . . . . . . . .	P Near	 00000000 FLAT	Length= 00000000 External STDCALL
CreateOutputFile . . . . . . . .	P Near	 00000000 FLAT	Length= 00000000 External STDCALL
CreateWindowExA  . . . . . . . .	P Near	 00000000 FLAT	Length= 00000000 External STDCALL
Crlf . . . . . . . . . . . . . .	P Near	 00000000 FLAT	Length= 00000000 External STDCALL
DefWindowProcA . . . . . . . . .	P Near	 00000000 FLAT	Length= 00000000 External STDCALL
Delay  . . . . . . . . . . . . .	P Near	 00000000 FLAT	Length= 00000000 External STDCALL
DispatchMessageA . . . . . . . .	P Near	 00000000 FLAT	Length= 00000000 External STDCALL
DumpMem  . . . . . . . . . . . .	P Near	 00000000 FLAT	Length= 00000000 External STDCALL
DumpRegs . . . . . . . . . . . .	P Near	 00000000 FLAT	Length= 00000000 External STDCALL
ExitProcess  . . . . . . . . . .	P Near	 00000000 FLAT	Length= 00000000 External STDCALL
FileTimeToDosDateTime  . . . . .	P Near	 00000000 FLAT	Length= 00000000 External STDCALL
FileTimeToSystemTime . . . . . .	P Near	 00000000 FLAT	Length= 00000000 External STDCALL
FlushConsoleInputBuffer  . . . .	P Near	 00000000 FLAT	Length= 00000000 External STDCALL
FormatMessageA . . . . . . . . .	P Near	 00000000 FLAT	Length= 00000000 External STDCALL
GetCommandLineA  . . . . . . . .	P Near	 00000000 FLAT	Length= 00000000 External STDCALL
GetCommandTail . . . . . . . . .	P Near	 00000000 FLAT	Length= 00000000 External STDCALL
GetConsoleCP . . . . . . . . . .	P Near	 00000000 FLAT	Length= 00000000 External STDCALL
GetConsoleCursorInfo . . . . . .	P Near	 00000000 FLAT	Length= 00000000 External STDCALL
GetConsoleMode . . . . . . . . .	P Near	 00000000 FLAT	Length= 00000000 External STDCALL
GetConsoleScreenBufferInfo . . .	P Near	 00000000 FLAT	Length= 00000000 External STDCALL
GetDateTime  . . . . . . . . . .	P Near	 00000000 FLAT	Length= 00000000 External STDCALL
GetFileTime  . . . . . . . . . .	P Near	 00000000 FLAT	Length= 00000000 External STDCALL
GetKeyState  . . . . . . . . . .	P Near	 00000000 FLAT	Length= 00000000 External STDCALL
GetLastError . . . . . . . . . .	P Near	 00000000 FLAT	Length= 00000000 External STDCALL
GetLocalTime . . . . . . . . . .	P Near	 00000000 FLAT	Length= 00000000 External STDCALL
GetMaxXY . . . . . . . . . . . .	P Near	 00000000 FLAT	Length= 00000000 External STDCALL
GetMessageA  . . . . . . . . . .	P Near	 00000000 FLAT	Length= 00000000 External STDCALL
GetModuleHandleA . . . . . . . .	P Near	 00000000 FLAT	Length= 00000000 External STDCALL
GetMseconds  . . . . . . . . . .	P Near	 00000000 FLAT	Length= 00000000 External STDCALL
GetNumberOfConsoleInputEvents  .	P Near	 00000000 FLAT	Length= 00000000 External STDCALL
GetProcessHeap . . . . . . . . .	P Near	 00000000 FLAT	Length= 00000000 External STDCALL
GetStdHandle . . . . . . . . . .	P Near	 00000000 FLAT	Length= 00000000 External STDCALL
GetSystemTime  . . . . . . . . .	P Near	 00000000 FLAT	Length= 00000000 External STDCALL
GetTextColor . . . . . . . . . .	P Near	 00000000 FLAT	Length= 00000000 External STDCALL
GetTickCount . . . . . . . . . .	P Near	 00000000 FLAT	Length= 00000000 External STDCALL
GetWindowDC  . . . . . . . . . .	P Near	 00000000 FLAT	Length= 00000000 External STDCALL
GetWindowRect  . . . . . . . . .	P Near	 00000000 FLAT	Length= 00000000 External STDCALL
Gotoxy . . . . . . . . . . . . .	P Near	 00000000 FLAT	Length= 00000000 External STDCALL
HeapAlloc  . . . . . . . . . . .	P Near	 00000000 FLAT	Length= 00000000 External STDCALL
HeapCreate . . . . . . . . . . .	P Near	 00000000 FLAT	Length= 00000000 External STDCALL
HeapDestroy  . . . . . . . . . .	P Near	 00000000 FLAT	Length= 00000000 External STDCALL
HeapFree . . . . . . . . . . . .	P Near	 00000000 FLAT	Length= 00000000 External STDCALL
HeapSize . . . . . . . . . . . .	P Near	 00000000 FLAT	Length= 00000000 External STDCALL
IsDigit  . . . . . . . . . . . .	P Near	 00000000 FLAT	Length= 00000000 External STDCALL
LoadCursorA  . . . . . . . . . .	P Near	 00000000 FLAT	Length= 00000000 External STDCALL
LoadIconA  . . . . . . . . . . .	P Near	 00000000 FLAT	Length= 00000000 External STDCALL
LocalFree  . . . . . . . . . . .	P Near	 00000000 FLAT	Length= 00000000 External STDCALL
MessageBoxA  . . . . . . . . . .	P Near	 00000000 FLAT	Length= 00000000 External STDCALL
MsgBoxAsk  . . . . . . . . . . .	P Near	 00000000 FLAT	Length= 00000000 External STDCALL
MsgBox . . . . . . . . . . . . .	P Near	 00000000 FLAT	Length= 00000000 External STDCALL
OpenInputFile  . . . . . . . . .	P Near	 00000000 FLAT	Length= 00000000 External STDCALL
ParseDecimal32 . . . . . . . . .	P Near	 00000000 FLAT	Length= 00000000 External STDCALL
ParseInteger32 . . . . . . . . .	P Near	 00000000 FLAT	Length= 00000000 External STDCALL
PeekConsoleInputA  . . . . . . .	P Near	 00000000 FLAT	Length= 00000000 External STDCALL
PlotApples . . . . . . . . . . .	P Near	 00000000 FLAT	Length= 00000000 External STDCALL
PlotBox  . . . . . . . . . . . .	P Near	 00000000 FLAT	Length= 00000000 External STDCALL
PlotObst . . . . . . . . . . . .	P Near	 00000000 FLAT	Length= 00000000 External STDCALL
PlotSnake  . . . . . . . . . . .	P Near	 00000000 FLAT	Length= 00000000 External STDCALL
PostQuitMessage  . . . . . . . .	P Near	 00000000 FLAT	Length= 00000000 External STDCALL
Random32 . . . . . . . . . . . .	P Near	 00000000 FLAT	Length= 00000000 External STDCALL
RandomRange  . . . . . . . . . .	P Near	 00000000 FLAT	Length= 00000000 External STDCALL
Randomize  . . . . . . . . . . .	P Near	 00000000 FLAT	Length= 00000000 External STDCALL
ReadChar . . . . . . . . . . . .	P Near	 00000000 FLAT	Length= 00000000 External STDCALL
ReadConsoleA . . . . . . . . . .	P Near	 00000000 FLAT	Length= 00000000 External STDCALL
ReadConsoleInputA  . . . . . . .	P Near	 00000000 FLAT	Length= 00000000 External STDCALL
ReadDec  . . . . . . . . . . . .	P Near	 00000000 FLAT	Length= 00000000 External STDCALL
ReadFile . . . . . . . . . . . .	P Near	 00000000 FLAT	Length= 00000000 External STDCALL
ReadFloat  . . . . . . . . . . .	P Near	 00000000 FLAT	Length= 00000000 External STDCALL
ReadFromFile . . . . . . . . . .	P Near	 00000000 FLAT	Length= 00000000 External STDCALL
ReadHex  . . . . . . . . . . . .	P Near	 00000000 FLAT	Length= 00000000 External STDCALL
ReadInt  . . . . . . . . . . . .	P Near	 00000000 FLAT	Length= 00000000 External STDCALL
ReadKeyFlush . . . . . . . . . .	P Near	 00000000 FLAT	Length= 00000000 External STDCALL
ReadKey  . . . . . . . . . . . .	P Near	 00000000 FLAT	Length= 00000000 External STDCALL
ReadString . . . . . . . . . . .	P Near	 00000000 FLAT	Length= 00000000 External STDCALL
RegisterClassA . . . . . . . . .	P Near	 00000000 FLAT	Length= 00000000 External STDCALL
Select_Load_Stage  . . . . . . .	P Near	 00000C7D _TEXT	Length= 000004B9 Public STDCALL
  chooseStage  . . . . . . . . .	L Near	 00000C7D _TEXT	
  file_not_ok  . . . . . . . . .	L Near	 00000E67 _TEXT	
  file_ok  . . . . . . . . . . .	L Near	 00000EA0 _TEXT	
  check_Buffer_Size  . . . . . .	L Near	 00000EC7 _TEXT	
  buf_size_ok  . . . . . . . . .	L Near	 00000EDF _TEXT	
  readEachChar . . . . . . . . .	L Near	 00000F19 _TEXT	
  loadSnakeX . . . . . . . . . .	L Near	 00000FC0 _TEXT	
  loadSnakeY . . . . . . . . . .	L Near	 00000FCE _TEXT	
  loadObsX . . . . . . . . . . .	L Near	 00000FF1 _TEXT	
  loadObsY . . . . . . . . . . .	L Near	 00000FFD _TEXT	
  loadGoalX  . . . . . . . . . .	L Near	 00001020 _TEXT	
  loadGoalY  . . . . . . . . . .	L Near	 0000102B _TEXT	
  loadAppleX . . . . . . . . . .	L Near	 00001036 _TEXT	
  loadAppleY . . . . . . . . . .	L Near	 00001042 _TEXT	
  loadBoxesX . . . . . . . . . .	L Near	 00001065 _TEXT	
  loadBoxesY . . . . . . . . . .	L Near	 00001071 _TEXT	
  loadTrapX  . . . . . . . . . .	L Near	 0000108D _TEXT	
  loadTrapY  . . . . . . . . . .	L Near	 00001099 _TEXT	
  notNUM . . . . . . . . . . . .	L Near	 000010B9 _TEXT	
  casePosY . . . . . . . . . . .	L Near	 00001115 _TEXT	
  caseNextPos  . . . . . . . . .	L Near	 0000111A _TEXT	
  looping  . . . . . . . . . . .	L Near	 0000111F _TEXT	
  close_File . . . . . . . . . .	L Near	 0000112B _TEXT	
  quit . . . . . . . . . . . . .	L Near	 00001135 _TEXT	
SetConsoleCursorInfo . . . . . .	P Near	 00000000 FLAT	Length= 00000000 External STDCALL
SetConsoleCursorPosition . . . .	P Near	 00000000 FLAT	Length= 00000000 External STDCALL
SetConsoleMode . . . . . . . . .	P Near	 00000000 FLAT	Length= 00000000 External STDCALL
SetConsoleScreenBufferSize . . .	P Near	 00000000 FLAT	Length= 00000000 External STDCALL
SetConsoleTextAttribute  . . . .	P Near	 00000000 FLAT	Length= 00000000 External STDCALL
SetConsoleTitleA . . . . . . . .	P Near	 00000000 FLAT	Length= 00000000 External STDCALL
SetConsoleWindowInfo . . . . . .	P Near	 00000000 FLAT	Length= 00000000 External STDCALL
SetFilePointer . . . . . . . . .	P Near	 00000000 FLAT	Length= 00000000 External STDCALL
SetLocalTime . . . . . . . . . .	P Near	 00000000 FLAT	Length= 00000000 External STDCALL
SetTextColor . . . . . . . . . .	P Near	 00000000 FLAT	Length= 00000000 External STDCALL
ShowFPUStack . . . . . . . . . .	P Near	 00000000 FLAT	Length= 00000000 External STDCALL
ShowWindow . . . . . . . . . . .	P Near	 00000000 FLAT	Length= 00000000 External STDCALL
Sleep  . . . . . . . . . . . . .	P Near	 00000000 FLAT	Length= 00000000 External STDCALL
StrLength  . . . . . . . . . . .	P Near	 00000000 FLAT	Length= 00000000 External STDCALL
Str_compare  . . . . . . . . . .	P Near	 00000000 FLAT	Length= 00000000 External STDCALL
Str_copy . . . . . . . . . . . .	P Near	 00000000 FLAT	Length= 00000000 External STDCALL
Str_length . . . . . . . . . . .	P Near	 00000000 FLAT	Length= 00000000 External STDCALL
Str_trim . . . . . . . . . . . .	P Near	 00000000 FLAT	Length= 00000000 External STDCALL
Str_ucase  . . . . . . . . . . .	P Near	 00000000 FLAT	Length= 00000000 External STDCALL
SystemTimeToFileTime . . . . . .	P Near	 00000000 FLAT	Length= 00000000 External STDCALL
UpdateWindow . . . . . . . . . .	P Near	 00000000 FLAT	Length= 00000000 External STDCALL
WaitMsg  . . . . . . . . . . . .	P Near	 00000000 FLAT	Length= 00000000 External STDCALL
WriteBinB  . . . . . . . . . . .	P Near	 00000000 FLAT	Length= 00000000 External STDCALL
WriteBin . . . . . . . . . . . .	P Near	 00000000 FLAT	Length= 00000000 External STDCALL
WriteChar  . . . . . . . . . . .	P Near	 00000000 FLAT	Length= 00000000 External STDCALL
WriteConsoleA  . . . . . . . . .	P Near	 00000000 FLAT	Length= 00000000 External STDCALL
WriteConsoleOutputAttribute  . .	P Near	 00000000 FLAT	Length= 00000000 External STDCALL
WriteConsoleOutputCharacterA . .	P Near	 00000000 FLAT	Length= 00000000 External STDCALL
WriteConsoleW  . . . . . . . . .	P Near	 00000000 FLAT	Length= 00000000 External STDCALL
WriteDec . . . . . . . . . . . .	P Near	 00000000 FLAT	Length= 00000000 External STDCALL
WriteFile  . . . . . . . . . . .	P Near	 00000000 FLAT	Length= 00000000 External STDCALL
WriteFloat . . . . . . . . . . .	P Near	 00000000 FLAT	Length= 00000000 External STDCALL
WriteHexB  . . . . . . . . . . .	P Near	 00000000 FLAT	Length= 00000000 External STDCALL
WriteHex . . . . . . . . . . . .	P Near	 00000000 FLAT	Length= 00000000 External STDCALL
WriteInt . . . . . . . . . . . .	P Near	 00000000 FLAT	Length= 00000000 External STDCALL
WriteStackFrameName  . . . . . .	P Near	 00000000 FLAT	Length= 00000000 External STDCALL
WriteStackFrame  . . . . . . . .	P Near	 00000000 FLAT	Length= 00000000 External STDCALL
WriteString  . . . . . . . . . .	P Near	 00000000 FLAT	Length= 00000000 External STDCALL
WriteToFile  . . . . . . . . . .	P Near	 00000000 FLAT	Length= 00000000 External STDCALL
WriteWindowsMsg  . . . . . . . .	P Near	 00000000 FLAT	Length= 00000000 External STDCALL
printf . . . . . . . . . . . . .	P Near	 00000000 FLAT	Length= 00000000 External C
scanf  . . . . . . . . . . . . .	P Near	 00000000 FLAT	Length= 00000000 External C
start@0  . . . . . . . . . . . .	P Near	 00000000 _TEXT	Length= 00000C7D Public STDCALL
  TITLE_SCREEN . . . . . . . . .	L Near	 0000000C _TEXT	
  SELECT_STAGE . . . . . . . . .	L Near	 0000013E _TEXT	
  MAIN_LOOP  . . . . . . . . . .	L Near	 0000014D _TEXT	
  INPUT  . . . . . . . . . . . .	L Near	 00000204 _TEXT	
  CHECK_INTERSECTING . . . . . .	L Near	 0000027A _TEXT	
  BOX_COLLISION_CHECK  . . . . .	L Near	 000002FE _TEXT	
  BB_COLL  . . . . . . . . . . .	L Near	 00000382 _TEXT	
  CONT_BB_COLL . . . . . . . . .	L Near	 00000399 _TEXT	
  BA_COLL  . . . . . . . . . . .	L Near	 000003A9 _TEXT	
  CONT_BA_COLL . . . . . . . . .	L Near	 000003CA _TEXT	
  ORI_VAL  . . . . . . . . . . .	L Near	 000003E8 _TEXT	
  CONT_BOX_COLLISION . . . . . .	L Near	 00000451 _TEXT	
  CHECK_BORDER . . . . . . . . .	L Near	 0000045D _TEXT	
  UPDATE_POS . . . . . . . . . .	L Near	 00000488 _TEXT	
  UPDATE_LOOP  . . . . . . . . .	L Near	 00000493 _TEXT	
  CHECK_BOX_SUPP . . . . . . . .	L Near	 00000512 _TEXT	
  WN_SUPP  . . . . . . . . . . .	L Near	 00000514 _TEXT	
  BA_SUPP  . . . . . . . . . . .	L Near	 00000568 _TEXT	
  CONT_BA_SUPP . . . . . . . . .	L Near	 00000586 _TEXT	
  APPLE_GRAVITY  . . . . . . . .	L Near	 0000058B _TEXT	
  MOVE_ON  . . . . . . . . . . .	L Near	 000005A6 _TEXT	
  T_SUPP . . . . . . . . . . . .	L Near	 000005D0 _TEXT	
  CONT_T_SUPP  . . . . . . . . .	L Near	 000005EA _TEXT	
  CHECK_BOX_SUPP_T . . . . . . .	L Near	 000005EF _TEXT	
  WN_SUPP_T  . . . . . . . . . .	L Near	 000005F1 _TEXT	
  BA_SUPP_T  . . . . . . . . . .	L Near	 00000645 _TEXT	
  CONT_BA_SUPP_T . . . . . . . .	L Near	 00000663 _TEXT	
  APPLE_GRAVITY_T  . . . . . . .	L Near	 00000668 _TEXT	
  MOVE_ON_T  . . . . . . . . . .	L Near	 00000683 _TEXT	
  NO_UPDATE  . . . . . . . . . .	L Near	 00000685 _TEXT	
  APPLE_EATEN  . . . . . . . . .	L Near	 00000690 _TEXT	
  CONTINUE_APPLE . . . . . . . .	L Near	 000006F5 _TEXT	
  CHECK_GOAL . . . . . . . . . .	L Near	 000006FA _TEXT	
  CHECK_SUPP . . . . . . . . . .	L Near	 00000720 _TEXT	
  LOOP_SUPP  . . . . . . . . . .	L Near	 000007E2 _TEXT	
  SUPP_OBST  . . . . . . . . . .	L Near	 000007FF _TEXT	
  CONT_OBST  . . . . . . . . . .	L Near	 00000824 _TEXT	
  SUPP_APPLE . . . . . . . . . .	L Near	 00000834 _TEXT	
  CONT_APPLE_SUPP  . . . . . . .	L Near	 00000854 _TEXT	
  SUPP_BOX . . . . . . . . . . .	L Near	 0000086F _TEXT	
  CONT_BOX_SUPP  . . . . . . . .	L Near	 00000883 _TEXT	
  SUPP_GOAL  . . . . . . . . . .	L Near	 00000888 _TEXT	
  CONT_SUPP  . . . . . . . . . .	L Near	 0000089C _TEXT	
  GRAVITY  . . . . . . . . . . .	L Near	 000008B2 _TEXT	
  LOOP_GRAVITY . . . . . . . . .	L Near	 000008BD _TEXT	
  SUPPORTED  . . . . . . . . . .	L Near	 000008E4 _TEXT	
  NEXT_LOOP  . . . . . . . . . .	L Near	 000008E4 _TEXT	
  FINISH . . . . . . . . . . . .	L Near	 000008E9 _TEXT	
  GAMEOVER . . . . . . . . . . .	L Near	 00000A35 _TEXT	
  END_FUNC . . . . . . . . . . .	L Near	 00000B5E _TEXT	
wsprintfA  . . . . . . . . . . .	P Near	 00000000 FLAT	Length= 00000000 External C


Symbols:

                N a m e                 Type     Value    Attr

??0000 . . . . . . . . . . . . .	Byte	 00001639 _DATA	
??0001 . . . . . . . . . . . . .	Byte	 00001691 _DATA	
??0002 . . . . . . . . . . . . .	Byte	 000016E9 _DATA	
??0003 . . . . . . . . . . . . .	Byte	 00001741 _DATA	
??0004 . . . . . . . . . . . . .	Byte	 00001799 _DATA	
??0005 . . . . . . . . . . . . .	Byte	 000017F1 _DATA	
??0006 . . . . . . . . . . . . .	Byte	 0000183D _DATA	
??0007 . . . . . . . . . . . . .	Byte	 00001889 _DATA	
??0008 . . . . . . . . . . . . .	Byte	 000018D5 _DATA	
??0009 . . . . . . . . . . . . .	Byte	 00001921 _DATA	
??000A . . . . . . . . . . . . .	Byte	 0000196D _DATA	
??000B . . . . . . . . . . . . .	Byte	 000019B9 _DATA	
??000C . . . . . . . . . . . . .	Byte	 000019F2 _DATA	
??000D . . . . . . . . . . . . .	Byte	 00001A2B _DATA	
??000E . . . . . . . . . . . . .	Byte	 00001A64 _DATA	
??000F . . . . . . . . . . . . .	Byte	 00001A9D _DATA	
??0010 . . . . . . . . . . . . .	Byte	 00001AD6 _DATA	
??0011 . . . . . . . . . . . . .	Byte	 00001ADB _DATA	
??0012 . . . . . . . . . . . . .	Byte	 00001B06 _DATA	
??0013 . . . . . . . . . . . . .	Byte	 00001B31 _DATA	
??0014 . . . . . . . . . . . . .	Byte	 00001B5C _DATA	
??0015 . . . . . . . . . . . . .	Byte	 00001B87 _DATA	
??0016 . . . . . . . . . . . . .	Byte	 00001BB2 _DATA	
??0017 . . . . . . . . . . . . .	Byte	 00001C0A _DATA	
??0018 . . . . . . . . . . . . .	Byte	 00001C62 _DATA	
??0019 . . . . . . . . . . . . .	Byte	 00001CBA _DATA	
??001A . . . . . . . . . . . . .	Byte	 00001D12 _DATA	
??001B . . . . . . . . . . . . .	Byte	 00001D6A _DATA	
??001C . . . . . . . . . . . . .	Byte	 00001DC2 _DATA	
??001D . . . . . . . . . . . . .	Byte	 00001DDA _DATA	
??001E . . . . . . . . . . . . .	Byte	 00001DEB _DATA	
??001F . . . . . . . . . . . . .	Byte	 00001DEE _DATA	
??0020 . . . . . . . . . . . . .	Byte	 00001E01 _DATA	
??0021 . . . . . . . . . . . . .	Byte	 00001E16 _DATA	
@CodeSize  . . . . . . . . . . .	Number	 00000000h   
@DataSize  . . . . . . . . . . .	Number	 00000000h   
@Interface . . . . . . . . . . .	Number	 00000003h   
@Model . . . . . . . . . . . . .	Number	 00000007h   
@code  . . . . . . . . . . . . .	Text   	 _TEXT
@data  . . . . . . . . . . . . .	Text   	 FLAT
@fardata?  . . . . . . . . . . .	Text   	 FLAT
@fardata . . . . . . . . . . . .	Text   	 FLAT
@stack . . . . . . . . . . . . .	Text   	 FLAT
ALT_MASK . . . . . . . . . . . .	Number	 00000003h   
BufferSize . . . . . . . . . . .	Number	 00001388h   
CAPSLOCK_ON  . . . . . . . . . .	Number	 00000080h   
COLOR_BACKGROUND . . . . . . . .	Number	 00000002h   
COLOR_WINDOW . . . . . . . . . .	Number	 00000005h   
CREATE_ALWAYS  . . . . . . . . .	Number	 00000002h   
CREATE_NEW . . . . . . . . . . .	Number	 00000001h   
CTRL_MASK  . . . . . . . . . . .	Number	 0000000Ch   
CW_USEDEFAULT  . . . . . . . . .	Number	 -80000000h   
CreateFile . . . . . . . . . . .	Text   	 CreateFileA
CreateWindowEx . . . . . . . . .	Text   	 CreateWindowExA
DO_NOT_SHARE . . . . . . . . . .	Number	 00000000h   
DefWindowProc  . . . . . . . . .	Text   	 DefWindowProcA
DispatchMessage  . . . . . . . .	Text   	 DispatchMessageA
ENABLE_ECHO_INPUT  . . . . . . .	Number	 00000004h   
ENABLE_LINE_INPUT  . . . . . . .	Number	 00000002h   
ENABLE_MOUSE_INPUT . . . . . . .	Number	 00000010h   
ENABLE_PROCESSED_INPUT . . . . .	Number	 00000001h   
ENABLE_PROCESSED_OUTPUT  . . . .	Number	 00000001h   
ENABLE_WINDOW_INPUT  . . . . . .	Number	 00000008h   
ENABLE_WRAP_AT_EOL_OUTPUT  . . .	Number	 00000002h   
ENHANCED_KEY . . . . . . . . . .	Number	 00000100h   
FALSE  . . . . . . . . . . . . .	Number	 00000000h   
FILE_APPEND_DATA . . . . . . . .	Number	 00000004h   
FILE_ATTRIBUTE_ARCHIVE . . . . .	Number	 00000020h   
FILE_ATTRIBUTE_COMPRESSED  . . .	Number	 00000800h   
FILE_ATTRIBUTE_DEVICE  . . . . .	Number	 00000040h   
FILE_ATTRIBUTE_DIRECTORY . . . .	Number	 00000010h   
FILE_ATTRIBUTE_ENCRYPTED . . . .	Number	 00004000h   
FILE_ATTRIBUTE_HIDDEN  . . . . .	Number	 00000002h   
FILE_ATTRIBUTE_NORMAL  . . . . .	Number	 00000080h   
FILE_ATTRIBUTE_NOT_CONTENT_INDEXED .	Number	 00002000h   
FILE_ATTRIBUTE_OFFLINE . . . . .	Number	 00001000h   
FILE_ATTRIBUTE_READONLY  . . . .	Number	 00000001h   
FILE_ATTRIBUTE_REPARSE_POINT . .	Number	 00000400h   
FILE_ATTRIBUTE_SPARSE_FILE . . .	Number	 00000200h   
FILE_ATTRIBUTE_SYSTEM  . . . . .	Number	 00000004h   
FILE_ATTRIBUTE_TEMPORARY . . . .	Number	 00000100h   
FILE_BEGIN . . . . . . . . . . .	Number	 00000000h   
FILE_CURRENT . . . . . . . . . .	Number	 00000001h   
FILE_DELETE_CHILD  . . . . . . .	Number	 00000040h   
FILE_END . . . . . . . . . . . .	Number	 00000002h   
FILE_READ_DATA . . . . . . . . .	Number	 00000001h   
FILE_SHARE_DELETE  . . . . . . .	Number	 00000004h   
FILE_SHARE_READ  . . . . . . . .	Number	 00000001h   
FILE_SHARE_WRITE . . . . . . . .	Number	 00000002h   
FILE_WRITE_DATA  . . . . . . . .	Number	 00000002h   
FOCUS_EVENT  . . . . . . . . . .	Number	 00000010h   
FORMAT_MESSAGE_ALLOCATE_BUFFER .	Number	 00000100h   
FORMAT_MESSAGE_FROM_SYSTEM . . .	Number	 00001000h   
FormatMessage  . . . . . . . . .	Text   	 FormatMessageA
GENERIC_ALL  . . . . . . . . . .	Number	 10000000h   
GENERIC_EXECUTE  . . . . . . . .	Number	 20000000h   
GENERIC_READ . . . . . . . . . .	Number	 -80000000h   
GENERIC_WRITE  . . . . . . . . .	Number	 40000000h   
GetCommandLine . . . . . . . . .	Text   	 GetCommandLineA
GetMessage . . . . . . . . . . .	Text   	 GetMessageA
GetModuleHandle  . . . . . . . .	Text   	 GetModuleHandleA
HANDLE . . . . . . . . . . . . .	Text   	 DWORD
HEAP_GENERATE_EXCEPTIONS . . . .	Number	 00000004h   
HEAP_GROWABLE  . . . . . . . . .	Number	 00000002h   
HEAP_NO_SERIALIZE  . . . . . . .	Number	 00000001h   
HEAP_REALLOC_IN_PLACE_ONLY . . .	Number	 00000010h   
HEAP_ZERO_MEMORY . . . . . . . .	Number	 00000008h   
IDABORT  . . . . . . . . . . . .	Number	 00000003h   
IDCANCEL . . . . . . . . . . . .	Number	 00000002h   
IDCLOSE  . . . . . . . . . . . .	Number	 00000008h   
IDCONTINUE . . . . . . . . . . .	Number	 0000000Bh   
IDC_ARROW  . . . . . . . . . . .	Number	 00007F00h   
IDHELP . . . . . . . . . . . . .	Number	 00000009h   
IDIGNORE . . . . . . . . . . . .	Number	 00000005h   
IDI_APPLICATION  . . . . . . . .	Number	 00007F00h   
IDNO . . . . . . . . . . . . . .	Number	 00000007h   
IDOK . . . . . . . . . . . . . .	Number	 00000001h   
IDRETRY  . . . . . . . . . . . .	Number	 00000004h   
IDTIMEOUT  . . . . . . . . . . .	Number	 00007D00h   
IDTRYAGAIN . . . . . . . . . . .	Number	 0000000Ah   
IDYES  . . . . . . . . . . . . .	Number	 00000006h   
INVALID_HANDLE_VALUE . . . . . .	Number	 -00000001h   
KBDOWN_FLAG  . . . . . . . . . .	Number	 00000001h   
KEY_EVENT  . . . . . . . . . . .	Number	 00000001h   
KEY_MASKS  . . . . . . . . . . .	Number	 0000001Fh   
LEFT_ALT_PRESSED . . . . . . . .	Number	 00000002h   
LEFT_CTRL_PRESSED  . . . . . . .	Number	 00000008h   
LoadCursor . . . . . . . . . . .	Text   	 LoadCursorA
LoadIcon . . . . . . . . . . . .	Text   	 LoadIconA
MAIN_WINDOW_STYLE  . . . . . . .	Number	 118F0000h   
MB_ABORTRETRYIGNORE  . . . . . .	Number	 00000002h   
MB_APPLMODAL . . . . . . . . . .	Number	 00000000h   
MB_CANCELTRYCONTINUE . . . . . .	Number	 00000006h   
MB_DEFBUTTON1  . . . . . . . . .	Number	 00000000h   
MB_DEFBUTTON2  . . . . . . . . .	Number	 00000100h   
MB_DEFBUTTON3  . . . . . . . . .	Number	 00000200h   
MB_DEFBUTTON4  . . . . . . . . .	Number	 00000300h   
MB_HELP  . . . . . . . . . . . .	Number	 00004000h   
MB_ICONASTERISK  . . . . . . . .	Number	 00000040h   
MB_ICONERROR . . . . . . . . . .	Number	 00000010h   
MB_ICONEXCLAMATION . . . . . . .	Number	 00000030h   
MB_ICONHAND  . . . . . . . . . .	Number	 00000010h   
MB_ICONINFORMATION . . . . . . .	Number	 00000040h   
MB_ICONQUESTION  . . . . . . . .	Number	 00000020h   
MB_ICONSTOP  . . . . . . . . . .	Number	 00000010h   
MB_ICONWARNING . . . . . . . . .	Number	 00000030h   
MB_OKCANCEL  . . . . . . . . . .	Number	 00000001h   
MB_OK  . . . . . . . . . . . . .	Number	 00000000h   
MB_RETRYCANCEL . . . . . . . . .	Number	 00000005h   
MB_SYSTEMMODAL . . . . . . . . .	Number	 00001000h   
MB_TASKMODAL . . . . . . . . . .	Number	 00002000h   
MB_USERICON  . . . . . . . . . .	Number	 00000080h   
MB_YESNOCANCEL . . . . . . . . .	Number	 00000003h   
MB_YESNO . . . . . . . . . . . .	Number	 00000004h   
MENU_EVENT . . . . . . . . . . .	Number	 00000008h   
MOUSE_EVENT  . . . . . . . . . .	Number	 00000002h   
MessageBox . . . . . . . . . . .	Text   	 MessageBoxA
NULL . . . . . . . . . . . . . .	Number	 00000000h   
NUMLOCK_ON . . . . . . . . . . .	Number	 00000020h   
OPEN_ALWAYS  . . . . . . . . . .	Number	 00000004h   
OPEN_EXISTING  . . . . . . . . .	Number	 00000003h   
PeekConsoleInput . . . . . . . .	Text   	 PeekConsoleInputA
RIGHT_ALT_PRESSED  . . . . . . .	Number	 00000001h   
RIGHT_CTRL_PRESSED . . . . . . .	Number	 00000004h   
ReadConsoleInput . . . . . . . .	Text   	 ReadConsoleInputA
ReadConsole  . . . . . . . . . .	Text   	 ReadConsoleA
RegisterClass  . . . . . . . . .	Text   	 RegisterClassA
SCROLLLOCK_ON  . . . . . . . . .	Number	 00000040h   
SHIFT_MASK . . . . . . . . . . .	Number	 00000010h   
SHIFT_PRESSED  . . . . . . . . .	Number	 00000010h   
STD_ERROR_HANDLE . . . . . . . .	Number	 -0000000Ch   
STD_INPUT_HANDLE . . . . . . . .	Number	 -0000000Ah   
STD_OUTPUT_HANDLE  . . . . . . .	Number	 -0000000Bh   
SW_SHOW  . . . . . . . . . . . .	Number	 00000005h   
SetConsoleTitle  . . . . . . . .	Text   	 SetConsoleTitleA
TAB  . . . . . . . . . . . . . .	Number	 00000009h   
TRUE . . . . . . . . . . . . . .	Number	 00000001h   
TRUNCATE_EXISTING  . . . . . . .	Number	 00000005h   
VK_11  . . . . . . . . . . . . .	Number	 000000BDh   
VK_12  . . . . . . . . . . . . .	Number	 000000BBh   
VK_ADD . . . . . . . . . . . . .	Number	 0000006Bh   
VK_BACK  . . . . . . . . . . . .	Number	 00000008h   
VK_CANCEL  . . . . . . . . . . .	Number	 00000003h   
VK_CAPITAL . . . . . . . . . . .	Number	 00000014h   
VK_CLEAR . . . . . . . . . . . .	Number	 0000000Ch   
VK_CONTROL . . . . . . . . . . .	Number	 00000011h   
VK_DECIMAL . . . . . . . . . . .	Number	 0000006Eh   
VK_DELETE  . . . . . . . . . . .	Number	 0000002Eh   
VK_DIVIDE  . . . . . . . . . . .	Number	 0000006Fh   
VK_DOWN  . . . . . . . . . . . .	Number	 00000028h   
VK_END . . . . . . . . . . . . .	Number	 00000023h   
VK_ESCAPE  . . . . . . . . . . .	Number	 0000001Bh   
VK_EXECUTE . . . . . . . . . . .	Number	 0000002Bh   
VK_F10 . . . . . . . . . . . . .	Number	 00000079h   
VK_F11 . . . . . . . . . . . . .	Number	 0000007Ah   
VK_F12 . . . . . . . . . . . . .	Number	 0000007Bh   
VK_F13 . . . . . . . . . . . . .	Number	 0000007Ch   
VK_F14 . . . . . . . . . . . . .	Number	 0000007Dh   
VK_F15 . . . . . . . . . . . . .	Number	 0000007Eh   
VK_F16 . . . . . . . . . . . . .	Number	 0000007Fh   
VK_F17 . . . . . . . . . . . . .	Number	 00000080h   
VK_F18 . . . . . . . . . . . . .	Number	 00000081h   
VK_F19 . . . . . . . . . . . . .	Number	 00000082h   
VK_F1  . . . . . . . . . . . . .	Number	 00000070h   
VK_F20 . . . . . . . . . . . . .	Number	 00000083h   
VK_F21 . . . . . . . . . . . . .	Number	 00000084h   
VK_F22 . . . . . . . . . . . . .	Number	 00000085h   
VK_F23 . . . . . . . . . . . . .	Number	 00000086h   
VK_F24 . . . . . . . . . . . . .	Number	 00000087h   
VK_F2  . . . . . . . . . . . . .	Number	 00000071h   
VK_F3  . . . . . . . . . . . . .	Number	 00000072h   
VK_F4  . . . . . . . . . . . . .	Number	 00000073h   
VK_F5  . . . . . . . . . . . . .	Number	 00000074h   
VK_F6  . . . . . . . . . . . . .	Number	 00000075h   
VK_F7  . . . . . . . . . . . . .	Number	 00000076h   
VK_F8  . . . . . . . . . . . . .	Number	 00000077h   
VK_F9  . . . . . . . . . . . . .	Number	 00000078h   
VK_HELP  . . . . . . . . . . . .	Number	 0000002Fh   
VK_HOME  . . . . . . . . . . . .	Number	 00000024h   
VK_INSERT  . . . . . . . . . . .	Number	 0000002Dh   
VK_LBUTTON . . . . . . . . . . .	Number	 00000001h   
VK_LCONTROL  . . . . . . . . . .	Number	 000000A2h   
VK_LEFT  . . . . . . . . . . . .	Number	 00000025h   
VK_LMENU . . . . . . . . . . . .	Number	 000000A4h   
VK_LSHIFT  . . . . . . . . . . .	Number	 000000A0h   
VK_MENU  . . . . . . . . . . . .	Number	 00000012h   
VK_MULTIPLY  . . . . . . . . . .	Number	 0000006Ah   
VK_NEXT  . . . . . . . . . . . .	Number	 00000022h   
VK_NUMLOCK . . . . . . . . . . .	Number	 00000090h   
VK_NUMPAD0 . . . . . . . . . . .	Number	 00000060h   
VK_NUMPAD1 . . . . . . . . . . .	Number	 00000061h   
VK_NUMPAD2 . . . . . . . . . . .	Number	 00000062h   
VK_NUMPAD3 . . . . . . . . . . .	Number	 00000063h   
VK_NUMPAD4 . . . . . . . . . . .	Number	 00000064h   
VK_NUMPAD5 . . . . . . . . . . .	Number	 00000065h   
VK_NUMPAD6 . . . . . . . . . . .	Number	 00000066h   
VK_NUMPAD7 . . . . . . . . . . .	Number	 00000067h   
VK_NUMPAD8 . . . . . . . . . . .	Number	 00000068h   
VK_NUMPAD9 . . . . . . . . . . .	Number	 00000069h   
VK_PAUSE . . . . . . . . . . . .	Number	 00000013h   
VK_PRINT . . . . . . . . . . . .	Number	 0000002Ah   
VK_PRIOR . . . . . . . . . . . .	Number	 00000021h   
VK_RBUTTON . . . . . . . . . . .	Number	 00000002h   
VK_RCONTROL  . . . . . . . . . .	Number	 000000A3h   
VK_RETURN  . . . . . . . . . . .	Number	 0000000Dh   
VK_RIGHT . . . . . . . . . . . .	Number	 00000027h   
VK_RMENU . . . . . . . . . . . .	Number	 000000A5h   
VK_RSHIFT  . . . . . . . . . . .	Number	 000000A1h   
VK_SCROLL  . . . . . . . . . . .	Number	 00000091h   
VK_SEPARATER . . . . . . . . . .	Number	 0000006Ch   
VK_SHIFT . . . . . . . . . . . .	Number	 00000010h   
VK_SNAPSHOT  . . . . . . . . . .	Number	 0000002Ch   
VK_SPACE . . . . . . . . . . . .	Number	 00000020h   
VK_SUBTRACT  . . . . . . . . . .	Number	 0000006Dh   
VK_TAB . . . . . . . . . . . . .	Number	 00000009h   
VK_UP  . . . . . . . . . . . . .	Number	 00000026h   
WINDOW_BUFFER_SIZE_EVENT . . . .	Number	 00000004h   
WM_CLOSE . . . . . . . . . . . .	Number	 00000010h   
WM_CREATE  . . . . . . . . . . .	Number	 00000001h   
WM_LBUTTONDOWN . . . . . . . . .	Number	 00000201h   
WS_BORDER  . . . . . . . . . . .	Number	 00800000h   
WS_CAPTION . . . . . . . . . . .	Number	 00C00000h   
WS_DLGFRAME  . . . . . . . . . .	Number	 00400000h   
WS_MAXIMIZEBOX . . . . . . . . .	Number	 00010000h   
WS_MINIMIZEBOX . . . . . . . . .	Number	 00020000h   
WS_OVERLAPPED  . . . . . . . . .	Number	 00000000h   
WS_SYSMENU . . . . . . . . . . .	Number	 00080000h   
WS_THICKFRAME  . . . . . . . . .	Number	 00040000h   
WS_VISIBLE . . . . . . . . . . .	Number	 10000000h   
WriteConsoleOutputCharacter  . .	Text   	 WriteConsoleOutputCharacterA
WriteConsole . . . . . . . . . .	Text   	 WriteConsoleA
appleLen . . . . . . . . . . . .	DWord	 000014B0 _DATA	
apples . . . . . . . . . . . . .	APPLE	 00001465 _DATA	
black  . . . . . . . . . . . . .	Number	 00000000h   
blue . . . . . . . . . . . . . .	Number	 00000001h   
boxLen . . . . . . . . . . . . .	DWord	 00001620 _DATA	
boxes  . . . . . . . . . . . . .	COORD	 000015E4 _DATA	
brown  . . . . . . . . . . . . .	Number	 00000006h   
buffer . . . . . . . . . . . . .	Byte	 00000000 _DATA	
consoleHandle  . . . . . . . . .	DWord	 00001406 _DATA	
cyan . . . . . . . . . . . . . .	Number	 00000003h   
exit . . . . . . . . . . . . . .	Text   	 INVOKE ExitProcess,0
fileHandle . . . . . . . . . . .	DWord	 00001402 _DATA	
fileInput  . . . . . . . . . . .	Byte	 00001388 _DATA	
filename . . . . . . . . . . . .	Byte	 000013EC _DATA	
fullBlock  . . . . . . . . . . .	Word	 0000140A _DATA	
goal . . . . . . . . . . . . . .	COORD	 00001624 _DATA	
gray . . . . . . . . . . . . . .	Number	 00000008h   
green  . . . . . . . . . . . . .	Number	 00000002h   
lastPos  . . . . . . . . . . . .	BLOCK	 00001628 _DATA	
lightBlue  . . . . . . . . . . .	Number	 00000009h   
lightCyan  . . . . . . . . . . .	Number	 0000000Bh   
lightGray  . . . . . . . . . . .	Number	 00000007h   
lightGreen . . . . . . . . . . .	Number	 0000000Ah   
lightMagenta . . . . . . . . . .	Number	 0000000Dh   
lightRed . . . . . . . . . . . .	Number	 0000000Ch   
magenta  . . . . . . . . . . . .	Number	 00000005h   
main . . . . . . . . . . . . . .	Text   	 start@0
obstacleLen  . . . . . . . . . .	DWord	 000015E0 _DATA	
obstacles  . . . . . . . . . . .	OBSTACLE  000014B4 _DATA	
red  . . . . . . . . . . . . . .	Number	 00000004h   
scr_height . . . . . . . . . . .	Byte	 00001410 _DATA	
scr_width  . . . . . . . . . . .	Byte	 00001411 _DATA	
snakeLen . . . . . . . . . . . .	DWord	 00001461 _DATA	
snake  . . . . . . . . . . . . .	BLOCK	 00001416 _DATA	
stageText  . . . . . . . . . . .	Byte	 00001632 _DATA	
update_box . . . . . . . . . . .	DWord	 0000162D _DATA	
update . . . . . . . . . . . . .	Byte	 00001631 _DATA	
white  . . . . . . . . . . . . .	Number	 0000000Fh   
written  . . . . . . . . . . . .	DWord	 00001412 _DATA	
wsprintf . . . . . . . . . . . .	Text   	 wsprintfA
xyUI . . . . . . . . . . . . . .	COORD	 00001635 _DATA	
yellow . . . . . . . . . . . . .	Number	 0000000Eh   

	   0 Warnings
	   0 Errors
